
rtos_usart_ll.elf:     file format elf32-littlearm

Sections:
Idx Name          Size      VMA       LMA       File off  Algn
  0 .isr_vector   0000010c  08000000  08000000  00010000  2**0
                  CONTENTS, ALLOC, LOAD, READONLY, DATA
  1 .text         00003c70  08000110  08000110  00010110  2**4
                  CONTENTS, ALLOC, LOAD, READONLY, CODE
  2 .rodata       0000045c  08003d80  08003d80  00013d80  2**2
                  CONTENTS, ALLOC, LOAD, READONLY, DATA
  3 .ARM          00000008  080041dc  080041dc  000141dc  2**2
                  CONTENTS, ALLOC, LOAD, READONLY, DATA
  4 .init_array   00000004  080041e4  080041e4  000141e4  2**2
                  CONTENTS, ALLOC, LOAD, DATA
  5 .fini_array   00000004  080041e8  080041e8  000141e8  2**2
                  CONTENTS, ALLOC, LOAD, DATA
  6 .data         000001e4  20000000  080041ec  00020000  2**2
                  CONTENTS, ALLOC, LOAD, DATA
  7 .bss          000017e4  200001e4  080043d0  000201e4  2**2
                  ALLOC
  8 ._user_heap_stack 00000600  200019c8  080043d0  000219c8  2**0
                  ALLOC
  9 .ARM.attributes 00000029  00000000  00000000  000201e4  2**0
                  CONTENTS, READONLY
 10 .debug_info   0002c86d  00000000  00000000  0002020d  2**0
                  CONTENTS, READONLY, DEBUGGING
 11 .debug_abbrev 000071a0  00000000  00000000  0004ca7a  2**0
                  CONTENTS, READONLY, DEBUGGING
 12 .debug_loc    0000af22  00000000  00000000  00053c1a  2**0
                  CONTENTS, READONLY, DEBUGGING
 13 .debug_aranges 00001260  00000000  00000000  0005eb40  2**3
                  CONTENTS, READONLY, DEBUGGING
 14 .debug_ranges 00001ae0  00000000  00000000  0005fda0  2**3
                  CONTENTS, READONLY, DEBUGGING
 15 .debug_line   0000c0df  00000000  00000000  00061880  2**0
                  CONTENTS, READONLY, DEBUGGING
 16 .debug_str    00006692  00000000  00000000  0006d95f  2**0
                  CONTENTS, READONLY, DEBUGGING
 17 .comment      0000007c  00000000  00000000  00073ff1  2**0
                  CONTENTS, READONLY
 18 .debug_frame  000033ac  00000000  00000000  00074070  2**2
                  CONTENTS, READONLY, DEBUGGING

Disassembly of section .text:

08000110 <__do_global_dtors_aux>:
 8000110:	b510      	push	{r4, lr}
 8000112:	4c05      	ldr	r4, [pc, #20]	; (8000128 <__do_global_dtors_aux+0x18>)
 8000114:	7823      	ldrb	r3, [r4, #0]
 8000116:	b933      	cbnz	r3, 8000126 <__do_global_dtors_aux+0x16>
 8000118:	4b04      	ldr	r3, [pc, #16]	; (800012c <__do_global_dtors_aux+0x1c>)
 800011a:	b113      	cbz	r3, 8000122 <__do_global_dtors_aux+0x12>
 800011c:	4804      	ldr	r0, [pc, #16]	; (8000130 <__do_global_dtors_aux+0x20>)
 800011e:	f3af 8000 	nop.w
 8000122:	2301      	movs	r3, #1
 8000124:	7023      	strb	r3, [r4, #0]
 8000126:	bd10      	pop	{r4, pc}
 8000128:	200001e4 	.word	0x200001e4
 800012c:	00000000 	.word	0x00000000
 8000130:	08003d68 	.word	0x08003d68

08000134 <frame_dummy>:
 8000134:	b508      	push	{r3, lr}
 8000136:	4b03      	ldr	r3, [pc, #12]	; (8000144 <frame_dummy+0x10>)
 8000138:	b11b      	cbz	r3, 8000142 <frame_dummy+0xe>
 800013a:	4903      	ldr	r1, [pc, #12]	; (8000148 <frame_dummy+0x14>)
 800013c:	4803      	ldr	r0, [pc, #12]	; (800014c <frame_dummy+0x18>)
 800013e:	f3af 8000 	nop.w
 8000142:	bd08      	pop	{r3, pc}
 8000144:	00000000 	.word	0x00000000
 8000148:	200001e8 	.word	0x200001e8
 800014c:	08003d68 	.word	0x08003d68

08000150 <strlen>:
 8000150:	4603      	mov	r3, r0
 8000152:	f813 2b01 	ldrb.w	r2, [r3], #1
 8000156:	2a00      	cmp	r2, #0
 8000158:	d1fb      	bne.n	8000152 <strlen+0x2>
 800015a:	1a18      	subs	r0, r3, r0
 800015c:	3801      	subs	r0, #1
 800015e:	4770      	bx	lr

08000160 <__aeabi_uldivmod>:
 8000160:	b953      	cbnz	r3, 8000178 <__aeabi_uldivmod+0x18>
 8000162:	b94a      	cbnz	r2, 8000178 <__aeabi_uldivmod+0x18>
 8000164:	2900      	cmp	r1, #0
 8000166:	bf08      	it	eq
 8000168:	2800      	cmpeq	r0, #0
 800016a:	bf1c      	itt	ne
 800016c:	f04f 31ff 	movne.w	r1, #4294967295
 8000170:	f04f 30ff 	movne.w	r0, #4294967295
 8000174:	f000 b97a 	b.w	800046c <__aeabi_idiv0>
 8000178:	f1ad 0c08 	sub.w	ip, sp, #8
 800017c:	e96d ce04 	strd	ip, lr, [sp, #-16]!
 8000180:	f000 f806 	bl	8000190 <__udivmoddi4>
 8000184:	f8dd e004 	ldr.w	lr, [sp, #4]
 8000188:	e9dd 2302 	ldrd	r2, r3, [sp, #8]
 800018c:	b004      	add	sp, #16
 800018e:	4770      	bx	lr

08000190 <__udivmoddi4>:
 8000190:	e92d 47f0 	stmdb	sp!, {r4, r5, r6, r7, r8, r9, sl, lr}
 8000194:	468c      	mov	ip, r1
 8000196:	460e      	mov	r6, r1
 8000198:	4604      	mov	r4, r0
 800019a:	9d08      	ldr	r5, [sp, #32]
 800019c:	2b00      	cmp	r3, #0
 800019e:	d150      	bne.n	8000242 <__udivmoddi4+0xb2>
 80001a0:	428a      	cmp	r2, r1
 80001a2:	4617      	mov	r7, r2
 80001a4:	d96c      	bls.n	8000280 <__udivmoddi4+0xf0>
 80001a6:	fab2 fe82 	clz	lr, r2
 80001aa:	f1be 0f00 	cmp.w	lr, #0
 80001ae:	d00b      	beq.n	80001c8 <__udivmoddi4+0x38>
 80001b0:	f1ce 0c20 	rsb	ip, lr, #32
 80001b4:	fa01 f60e 	lsl.w	r6, r1, lr
 80001b8:	fa20 fc0c 	lsr.w	ip, r0, ip
 80001bc:	fa02 f70e 	lsl.w	r7, r2, lr
 80001c0:	ea4c 0c06 	orr.w	ip, ip, r6
 80001c4:	fa00 f40e 	lsl.w	r4, r0, lr
 80001c8:	0c3a      	lsrs	r2, r7, #16
 80001ca:	fbbc f9f2 	udiv	r9, ip, r2
 80001ce:	b2bb      	uxth	r3, r7
 80001d0:	fb02 cc19 	mls	ip, r2, r9, ip
 80001d4:	fb09 fa03 	mul.w	sl, r9, r3
 80001d8:	ea4f 4814 	mov.w	r8, r4, lsr #16
 80001dc:	ea48 460c 	orr.w	r6, r8, ip, lsl #16
 80001e0:	45b2      	cmp	sl, r6
 80001e2:	d90a      	bls.n	80001fa <__udivmoddi4+0x6a>
 80001e4:	19f6      	adds	r6, r6, r7
 80001e6:	f109 31ff 	add.w	r1, r9, #4294967295
 80001ea:	f080 8125 	bcs.w	8000438 <__udivmoddi4+0x2a8>
 80001ee:	45b2      	cmp	sl, r6
 80001f0:	f240 8122 	bls.w	8000438 <__udivmoddi4+0x2a8>
 80001f4:	f1a9 0902 	sub.w	r9, r9, #2
 80001f8:	443e      	add	r6, r7
 80001fa:	eba6 060a 	sub.w	r6, r6, sl
 80001fe:	fbb6 f0f2 	udiv	r0, r6, r2
 8000202:	fb02 6610 	mls	r6, r2, r0, r6
 8000206:	fb00 f303 	mul.w	r3, r0, r3
 800020a:	b2a4      	uxth	r4, r4
 800020c:	ea44 4406 	orr.w	r4, r4, r6, lsl #16
 8000210:	42a3      	cmp	r3, r4
 8000212:	d909      	bls.n	8000228 <__udivmoddi4+0x98>
 8000214:	19e4      	adds	r4, r4, r7
 8000216:	f100 32ff 	add.w	r2, r0, #4294967295
 800021a:	f080 810b 	bcs.w	8000434 <__udivmoddi4+0x2a4>
 800021e:	42a3      	cmp	r3, r4
 8000220:	f240 8108 	bls.w	8000434 <__udivmoddi4+0x2a4>
 8000224:	3802      	subs	r0, #2
 8000226:	443c      	add	r4, r7
 8000228:	2100      	movs	r1, #0
 800022a:	1ae4      	subs	r4, r4, r3
 800022c:	ea40 4009 	orr.w	r0, r0, r9, lsl #16
 8000230:	2d00      	cmp	r5, #0
 8000232:	d062      	beq.n	80002fa <__udivmoddi4+0x16a>
 8000234:	2300      	movs	r3, #0
 8000236:	fa24 f40e 	lsr.w	r4, r4, lr
 800023a:	602c      	str	r4, [r5, #0]
 800023c:	606b      	str	r3, [r5, #4]
 800023e:	e8bd 87f0 	ldmia.w	sp!, {r4, r5, r6, r7, r8, r9, sl, pc}
 8000242:	428b      	cmp	r3, r1
 8000244:	d907      	bls.n	8000256 <__udivmoddi4+0xc6>
 8000246:	2d00      	cmp	r5, #0
 8000248:	d055      	beq.n	80002f6 <__udivmoddi4+0x166>
 800024a:	2100      	movs	r1, #0
 800024c:	e885 0041 	stmia.w	r5, {r0, r6}
 8000250:	4608      	mov	r0, r1
 8000252:	e8bd 87f0 	ldmia.w	sp!, {r4, r5, r6, r7, r8, r9, sl, pc}
 8000256:	fab3 f183 	clz	r1, r3
 800025a:	2900      	cmp	r1, #0
 800025c:	f040 808f 	bne.w	800037e <__udivmoddi4+0x1ee>
 8000260:	42b3      	cmp	r3, r6
 8000262:	d302      	bcc.n	800026a <__udivmoddi4+0xda>
 8000264:	4282      	cmp	r2, r0
 8000266:	f200 80fc 	bhi.w	8000462 <__udivmoddi4+0x2d2>
 800026a:	1a84      	subs	r4, r0, r2
 800026c:	eb66 0603 	sbc.w	r6, r6, r3
 8000270:	2001      	movs	r0, #1
 8000272:	46b4      	mov	ip, r6
 8000274:	2d00      	cmp	r5, #0
 8000276:	d040      	beq.n	80002fa <__udivmoddi4+0x16a>
 8000278:	e885 1010 	stmia.w	r5, {r4, ip}
 800027c:	e8bd 87f0 	ldmia.w	sp!, {r4, r5, r6, r7, r8, r9, sl, pc}
 8000280:	b912      	cbnz	r2, 8000288 <__udivmoddi4+0xf8>
 8000282:	2701      	movs	r7, #1
 8000284:	fbb7 f7f2 	udiv	r7, r7, r2
 8000288:	fab7 fe87 	clz	lr, r7
 800028c:	f1be 0f00 	cmp.w	lr, #0
 8000290:	d135      	bne.n	80002fe <__udivmoddi4+0x16e>
 8000292:	2101      	movs	r1, #1
 8000294:	1bf6      	subs	r6, r6, r7
 8000296:	ea4f 4c17 	mov.w	ip, r7, lsr #16
 800029a:	fa1f f887 	uxth.w	r8, r7
 800029e:	fbb6 f2fc 	udiv	r2, r6, ip
 80002a2:	fb0c 6612 	mls	r6, ip, r2, r6
 80002a6:	fb08 f002 	mul.w	r0, r8, r2
 80002aa:	0c23      	lsrs	r3, r4, #16
 80002ac:	ea43 4606 	orr.w	r6, r3, r6, lsl #16
 80002b0:	42b0      	cmp	r0, r6
 80002b2:	d907      	bls.n	80002c4 <__udivmoddi4+0x134>
 80002b4:	19f6      	adds	r6, r6, r7
 80002b6:	f102 33ff 	add.w	r3, r2, #4294967295
 80002ba:	d202      	bcs.n	80002c2 <__udivmoddi4+0x132>
 80002bc:	42b0      	cmp	r0, r6
 80002be:	f200 80d2 	bhi.w	8000466 <__udivmoddi4+0x2d6>
 80002c2:	461a      	mov	r2, r3
 80002c4:	1a36      	subs	r6, r6, r0
 80002c6:	fbb6 f0fc 	udiv	r0, r6, ip
 80002ca:	fb0c 6610 	mls	r6, ip, r0, r6
 80002ce:	fb08 f800 	mul.w	r8, r8, r0
 80002d2:	b2a3      	uxth	r3, r4
 80002d4:	ea43 4406 	orr.w	r4, r3, r6, lsl #16
 80002d8:	45a0      	cmp	r8, r4
 80002da:	d907      	bls.n	80002ec <__udivmoddi4+0x15c>
 80002dc:	19e4      	adds	r4, r4, r7
 80002de:	f100 33ff 	add.w	r3, r0, #4294967295
 80002e2:	d202      	bcs.n	80002ea <__udivmoddi4+0x15a>
 80002e4:	45a0      	cmp	r8, r4
 80002e6:	f200 80b9 	bhi.w	800045c <__udivmoddi4+0x2cc>
 80002ea:	4618      	mov	r0, r3
 80002ec:	eba4 0408 	sub.w	r4, r4, r8
 80002f0:	ea40 4002 	orr.w	r0, r0, r2, lsl #16
 80002f4:	e79c      	b.n	8000230 <__udivmoddi4+0xa0>
 80002f6:	4629      	mov	r1, r5
 80002f8:	4628      	mov	r0, r5
 80002fa:	e8bd 87f0 	ldmia.w	sp!, {r4, r5, r6, r7, r8, r9, sl, pc}
 80002fe:	fa07 f70e 	lsl.w	r7, r7, lr
 8000302:	f1ce 0320 	rsb	r3, lr, #32
 8000306:	fa26 f203 	lsr.w	r2, r6, r3
 800030a:	ea4f 4c17 	mov.w	ip, r7, lsr #16
 800030e:	fbb2 f1fc 	udiv	r1, r2, ip
 8000312:	fa1f f887 	uxth.w	r8, r7
 8000316:	fb0c 2211 	mls	r2, ip, r1, r2
 800031a:	fa06 f60e 	lsl.w	r6, r6, lr
 800031e:	fa20 f303 	lsr.w	r3, r0, r3
 8000322:	fb01 f908 	mul.w	r9, r1, r8
 8000326:	4333      	orrs	r3, r6
 8000328:	0c1e      	lsrs	r6, r3, #16
 800032a:	ea46 4602 	orr.w	r6, r6, r2, lsl #16
 800032e:	45b1      	cmp	r9, r6
 8000330:	fa00 f40e 	lsl.w	r4, r0, lr
 8000334:	d909      	bls.n	800034a <__udivmoddi4+0x1ba>
 8000336:	19f6      	adds	r6, r6, r7
 8000338:	f101 32ff 	add.w	r2, r1, #4294967295
 800033c:	f080 808c 	bcs.w	8000458 <__udivmoddi4+0x2c8>
 8000340:	45b1      	cmp	r9, r6
 8000342:	f240 8089 	bls.w	8000458 <__udivmoddi4+0x2c8>
 8000346:	3902      	subs	r1, #2
 8000348:	443e      	add	r6, r7
 800034a:	eba6 0609 	sub.w	r6, r6, r9
 800034e:	fbb6 f0fc 	udiv	r0, r6, ip
 8000352:	fb0c 6210 	mls	r2, ip, r0, r6
 8000356:	fb00 f908 	mul.w	r9, r0, r8
 800035a:	b29e      	uxth	r6, r3
 800035c:	ea46 4602 	orr.w	r6, r6, r2, lsl #16
 8000360:	45b1      	cmp	r9, r6
 8000362:	d907      	bls.n	8000374 <__udivmoddi4+0x1e4>
 8000364:	19f6      	adds	r6, r6, r7
 8000366:	f100 33ff 	add.w	r3, r0, #4294967295
 800036a:	d271      	bcs.n	8000450 <__udivmoddi4+0x2c0>
 800036c:	45b1      	cmp	r9, r6
 800036e:	d96f      	bls.n	8000450 <__udivmoddi4+0x2c0>
 8000370:	3802      	subs	r0, #2
 8000372:	443e      	add	r6, r7
 8000374:	eba6 0609 	sub.w	r6, r6, r9
 8000378:	ea40 4101 	orr.w	r1, r0, r1, lsl #16
 800037c:	e78f      	b.n	800029e <__udivmoddi4+0x10e>
 800037e:	f1c1 0720 	rsb	r7, r1, #32
 8000382:	fa22 f807 	lsr.w	r8, r2, r7
 8000386:	408b      	lsls	r3, r1
 8000388:	ea48 0303 	orr.w	r3, r8, r3
 800038c:	fa26 f407 	lsr.w	r4, r6, r7
 8000390:	ea4f 4e13 	mov.w	lr, r3, lsr #16
 8000394:	fbb4 f9fe 	udiv	r9, r4, lr
 8000398:	fa1f fc83 	uxth.w	ip, r3
 800039c:	fb0e 4419 	mls	r4, lr, r9, r4
 80003a0:	408e      	lsls	r6, r1
 80003a2:	fa20 f807 	lsr.w	r8, r0, r7
 80003a6:	fb09 fa0c 	mul.w	sl, r9, ip
 80003aa:	ea48 0806 	orr.w	r8, r8, r6
 80003ae:	ea4f 4618 	mov.w	r6, r8, lsr #16
 80003b2:	ea46 4404 	orr.w	r4, r6, r4, lsl #16
 80003b6:	45a2      	cmp	sl, r4
 80003b8:	fa02 f201 	lsl.w	r2, r2, r1
 80003bc:	fa00 f601 	lsl.w	r6, r0, r1
 80003c0:	d908      	bls.n	80003d4 <__udivmoddi4+0x244>
 80003c2:	18e4      	adds	r4, r4, r3
 80003c4:	f109 30ff 	add.w	r0, r9, #4294967295
 80003c8:	d244      	bcs.n	8000454 <__udivmoddi4+0x2c4>
 80003ca:	45a2      	cmp	sl, r4
 80003cc:	d942      	bls.n	8000454 <__udivmoddi4+0x2c4>
 80003ce:	f1a9 0902 	sub.w	r9, r9, #2
 80003d2:	441c      	add	r4, r3
 80003d4:	eba4 040a 	sub.w	r4, r4, sl
 80003d8:	fbb4 f0fe 	udiv	r0, r4, lr
 80003dc:	fb0e 4410 	mls	r4, lr, r0, r4
 80003e0:	fb00 fc0c 	mul.w	ip, r0, ip
 80003e4:	fa1f f888 	uxth.w	r8, r8
 80003e8:	ea48 4404 	orr.w	r4, r8, r4, lsl #16
 80003ec:	45a4      	cmp	ip, r4
 80003ee:	d907      	bls.n	8000400 <__udivmoddi4+0x270>
 80003f0:	18e4      	adds	r4, r4, r3
 80003f2:	f100 3eff 	add.w	lr, r0, #4294967295
 80003f6:	d229      	bcs.n	800044c <__udivmoddi4+0x2bc>
 80003f8:	45a4      	cmp	ip, r4
 80003fa:	d927      	bls.n	800044c <__udivmoddi4+0x2bc>
 80003fc:	3802      	subs	r0, #2
 80003fe:	441c      	add	r4, r3
 8000400:	ea40 4009 	orr.w	r0, r0, r9, lsl #16
 8000404:	fba0 8902 	umull	r8, r9, r0, r2
 8000408:	eba4 0c0c 	sub.w	ip, r4, ip
 800040c:	45cc      	cmp	ip, r9
 800040e:	46c2      	mov	sl, r8
 8000410:	46ce      	mov	lr, r9
 8000412:	d315      	bcc.n	8000440 <__udivmoddi4+0x2b0>
 8000414:	d012      	beq.n	800043c <__udivmoddi4+0x2ac>
 8000416:	b155      	cbz	r5, 800042e <__udivmoddi4+0x29e>
 8000418:	ebb6 030a 	subs.w	r3, r6, sl
 800041c:	eb6c 060e 	sbc.w	r6, ip, lr
 8000420:	fa06 f707 	lsl.w	r7, r6, r7
 8000424:	40cb      	lsrs	r3, r1
 8000426:	431f      	orrs	r7, r3
 8000428:	40ce      	lsrs	r6, r1
 800042a:	602f      	str	r7, [r5, #0]
 800042c:	606e      	str	r6, [r5, #4]
 800042e:	2100      	movs	r1, #0
 8000430:	e8bd 87f0 	ldmia.w	sp!, {r4, r5, r6, r7, r8, r9, sl, pc}
 8000434:	4610      	mov	r0, r2
 8000436:	e6f7      	b.n	8000228 <__udivmoddi4+0x98>
 8000438:	4689      	mov	r9, r1
 800043a:	e6de      	b.n	80001fa <__udivmoddi4+0x6a>
 800043c:	4546      	cmp	r6, r8
 800043e:	d2ea      	bcs.n	8000416 <__udivmoddi4+0x286>
 8000440:	ebb8 0a02 	subs.w	sl, r8, r2
 8000444:	eb69 0e03 	sbc.w	lr, r9, r3
 8000448:	3801      	subs	r0, #1
 800044a:	e7e4      	b.n	8000416 <__udivmoddi4+0x286>
 800044c:	4670      	mov	r0, lr
 800044e:	e7d7      	b.n	8000400 <__udivmoddi4+0x270>
 8000450:	4618      	mov	r0, r3
 8000452:	e78f      	b.n	8000374 <__udivmoddi4+0x1e4>
 8000454:	4681      	mov	r9, r0
 8000456:	e7bd      	b.n	80003d4 <__udivmoddi4+0x244>
 8000458:	4611      	mov	r1, r2
 800045a:	e776      	b.n	800034a <__udivmoddi4+0x1ba>
 800045c:	3802      	subs	r0, #2
 800045e:	443c      	add	r4, r7
 8000460:	e744      	b.n	80002ec <__udivmoddi4+0x15c>
 8000462:	4608      	mov	r0, r1
 8000464:	e706      	b.n	8000274 <__udivmoddi4+0xe4>
 8000466:	3a02      	subs	r2, #2
 8000468:	443e      	add	r6, r7
 800046a:	e72b      	b.n	80002c4 <__udivmoddi4+0x134>

0800046c <__aeabi_idiv0>:
 800046c:	4770      	bx	lr
 800046e:	bf00      	nop

08000470 <requestFlush>:
	USART1_Device_Reset();
}

static void requestFlush()
{
	memset(request, '0', 512);
 8000470:	f44f 7200 	mov.w	r2, #512	; 0x200
 8000474:	2130      	movs	r1, #48	; 0x30
 8000476:	4801      	ldr	r0, [pc, #4]	; (800047c <requestFlush+0xc>)
 8000478:	f002 bf79 	b.w	800336e <memset>
 800047c:	20001368 	.word	0x20001368

08000480 <ESPInit>:
{
 8000480:	b508      	push	{r3, lr}
	 MX_USART1_UART_Init();
 8000482:	f002 fd6b 	bl	8002f5c <MX_USART1_UART_Init>
}
 8000486:	e8bd 4008 	ldmia.w	sp!, {r3, lr}
	 RingBuff_Init();
 800048a:	f000 bad7 	b.w	8000a3c <RingBuff_Init>

0800048e <ESP_Resset>:
	USART1_Device_Reset();
 800048e:	f002 bd59 	b.w	8002f44 <USART1_Device_Reset>
	...

08000494 <requestRefresh>:
	}
	return 0;
}

uint8_t requestRefresh()
{
 8000494:	b538      	push	{r3, r4, r5, lr}
	memset(answer, '0', 512);
 8000496:	f44f 7200 	mov.w	r2, #512	; 0x200
 800049a:	2130      	movs	r1, #48	; 0x30
 800049c:	480e      	ldr	r0, [pc, #56]	; (80004d8 <requestRefresh+0x44>)
 800049e:	f002 ff66 	bl	800336e <memset>
 80004a2:	2400      	movs	r4, #0
	answerFlush();
	int i = 0;
	while(!(RingBuff_IsEmpty()) && i < 512)
	{
		answer[i++] = RingBuff_Pop();
 80004a4:	4d0c      	ldr	r5, [pc, #48]	; (80004d8 <requestRefresh+0x44>)
	while(!(RingBuff_IsEmpty()) && i < 512)
 80004a6:	f000 faef 	bl	8000a88 <RingBuff_IsEmpty>
 80004aa:	b910      	cbnz	r0, 80004b2 <requestRefresh+0x1e>
 80004ac:	f5b4 7f00 	cmp.w	r4, #512	; 0x200
 80004b0:	d10b      	bne.n	80004ca <requestRefresh+0x36>
	}

	char * search;
	search = strstr(answer, "+IPD,");
 80004b2:	490a      	ldr	r1, [pc, #40]	; (80004dc <requestRefresh+0x48>)
 80004b4:	4808      	ldr	r0, [pc, #32]	; (80004d8 <requestRefresh+0x44>)
 80004b6:	f002 ff87 	bl	80033c8 <strstr>
	if(search != NULL)
 80004ba:	b158      	cbz	r0, 80004d4 <requestRefresh+0x40>
	{
		search+=5;
		uint8_t ID = strtol(search, NULL, 10);
 80004bc:	220a      	movs	r2, #10
 80004be:	2100      	movs	r1, #0
 80004c0:	3005      	adds	r0, #5
 80004c2:	f003 f81d 	bl	8003500 <strtol>
 80004c6:	b2c0      	uxtb	r0, r0
		//search += 2;
		//answerLength = strtol(search, NULL, 10); // get answer length

		return ID;
 80004c8:	bd38      	pop	{r3, r4, r5, pc}
		answer[i++] = RingBuff_Pop();
 80004ca:	f000 facf 	bl	8000a6c <RingBuff_Pop>
 80004ce:	5528      	strb	r0, [r5, r4]
 80004d0:	3401      	adds	r4, #1
 80004d2:	e7e8      	b.n	80004a6 <requestRefresh+0x12>
	}
	return 100;
 80004d4:	2064      	movs	r0, #100	; 0x64
}
 80004d6:	bd38      	pop	{r3, r4, r5, pc}
 80004d8:	20001568 	.word	0x20001568
 80004dc:	08003e13 	.word	0x08003e13

080004e0 <charCallBack>:

uint8_t charCallBack(char * key)
{
 80004e0:	b570      	push	{r4, r5, r6, lr}
	memset(answer, '0', 512);
 80004e2:	f44f 7200 	mov.w	r2, #512	; 0x200
{
 80004e6:	4604      	mov	r4, r0
	memset(answer, '0', 512);
 80004e8:	2130      	movs	r1, #48	; 0x30
 80004ea:	4812      	ldr	r0, [pc, #72]	; (8000534 <charCallBack+0x54>)
 80004ec:	f002 ff3f 	bl	800336e <memset>
 80004f0:	2500      	movs	r5, #0
	answerFlush();
	uint16_t i = 0;
	while(!(RingBuff_IsEmpty()) && i < 512)
	{
		answer[i++] = RingBuff_Pop();
 80004f2:	4e10      	ldr	r6, [pc, #64]	; (8000534 <charCallBack+0x54>)
	while(!(RingBuff_IsEmpty()) && i < 512)
 80004f4:	f000 fac8 	bl	8000a88 <RingBuff_IsEmpty>
 80004f8:	b910      	cbnz	r0, 8000500 <charCallBack+0x20>
 80004fa:	f5b5 7f00 	cmp.w	r5, #512	; 0x200
 80004fe:	d111      	bne.n	8000524 <charCallBack+0x44>
	}

	if(key != NULL && strlen(answer) >= strlen(key))
 8000500:	b1ac      	cbz	r4, 800052e <charCallBack+0x4e>
 8000502:	480c      	ldr	r0, [pc, #48]	; (8000534 <charCallBack+0x54>)
 8000504:	f7ff fe24 	bl	8000150 <strlen>
 8000508:	4605      	mov	r5, r0
 800050a:	4620      	mov	r0, r4
 800050c:	f7ff fe20 	bl	8000150 <strlen>
 8000510:	4285      	cmp	r5, r0
 8000512:	d30c      	bcc.n	800052e <charCallBack+0x4e>
	{
		if(strstr(answer, key) != NULL)
 8000514:	4621      	mov	r1, r4
 8000516:	4807      	ldr	r0, [pc, #28]	; (8000534 <charCallBack+0x54>)
 8000518:	f002 ff56 	bl	80033c8 <strstr>
		{
			return 1;
 800051c:	3000      	adds	r0, #0
 800051e:	bf18      	it	ne
 8000520:	2001      	movne	r0, #1
 8000522:	bd70      	pop	{r4, r5, r6, pc}
		answer[i++] = RingBuff_Pop();
 8000524:	f000 faa2 	bl	8000a6c <RingBuff_Pop>
 8000528:	5570      	strb	r0, [r6, r5]
 800052a:	3501      	adds	r5, #1
 800052c:	e7e2      	b.n	80004f4 <charCallBack+0x14>
		}
	}

	return 0;
 800052e:	2000      	movs	r0, #0
}
 8000530:	bd70      	pop	{r4, r5, r6, pc}
 8000532:	bf00      	nop
 8000534:	20001568 	.word	0x20001568

08000538 <waitCallBack.constprop.1>:
static bool waitCallBack(char * aim, uint8_t ms)
 8000538:	b538      	push	{r3, r4, r5, lr}
 800053a:	4605      	mov	r5, r0
	uint32_t time = get_sys_tick();
 800053c:	f002 f8b2 	bl	80026a4 <get_sys_tick>
	while(time + ms > get_sys_tick())
 8000540:	f100 0414 	add.w	r4, r0, #20
 8000544:	f002 f8ae 	bl	80026a4 <get_sys_tick>
 8000548:	4284      	cmp	r4, r0
 800054a:	d801      	bhi.n	8000550 <waitCallBack.constprop.1+0x18>
	return 0;
 800054c:	2000      	movs	r0, #0
 800054e:	bd38      	pop	{r3, r4, r5, pc}
		if(charCallBack(aim))
 8000550:	4628      	mov	r0, r5
 8000552:	f7ff ffc5 	bl	80004e0 <charCallBack>
 8000556:	2800      	cmp	r0, #0
 8000558:	d0f4      	beq.n	8000544 <waitCallBack.constprop.1+0xc>
			return 1;
 800055a:	2001      	movs	r0, #1
}
 800055c:	bd38      	pop	{r3, r4, r5, pc}
	...

08000560 <ESP_StartTCPServer>:
{
 8000560:	b538      	push	{r3, r4, r5, lr}
    if(!TCPServerFlag)
 8000562:	4c12      	ldr	r4, [pc, #72]	; (80005ac <ESP_StartTCPServer+0x4c>)
{
 8000564:	4605      	mov	r5, r0
    if(!TCPServerFlag)
 8000566:	7823      	ldrb	r3, [r4, #0]
 8000568:	b10b      	cbz	r3, 800056e <ESP_StartTCPServer+0xe>
	return 0;
 800056a:	2000      	movs	r0, #0
 800056c:	bd38      	pop	{r3, r4, r5, pc}
        USART_SendData("AT+CIPMUX=1\r\n", 13);
 800056e:	210d      	movs	r1, #13
 8000570:	480f      	ldr	r0, [pc, #60]	; (80005b0 <ESP_StartTCPServer+0x50>)
 8000572:	f002 fca7 	bl	8002ec4 <USART_SendData>
        delay(100);
 8000576:	2064      	movs	r0, #100	; 0x64
 8000578:	f002 f892 	bl	80026a0 <delay>
        requestFlush();
 800057c:	f7ff ff78 	bl	8000470 <requestFlush>
        sprintf(request, "AT+CIPSERVER=1,%d\r\n", port);
 8000580:	462a      	mov	r2, r5
 8000582:	490c      	ldr	r1, [pc, #48]	; (80005b4 <ESP_StartTCPServer+0x54>)
 8000584:	480c      	ldr	r0, [pc, #48]	; (80005b8 <ESP_StartTCPServer+0x58>)
 8000586:	f002 fefb 	bl	8003380 <siprintf>
    	RingBuff_Clear();
 800058a:	f000 fa89 	bl	8000aa0 <RingBuff_Clear>
        USART_SendData(request, strlen(request));
 800058e:	480a      	ldr	r0, [pc, #40]	; (80005b8 <ESP_StartTCPServer+0x58>)
 8000590:	f7ff fdde 	bl	8000150 <strlen>
 8000594:	4601      	mov	r1, r0
 8000596:	4808      	ldr	r0, [pc, #32]	; (80005b8 <ESP_StartTCPServer+0x58>)
 8000598:	f002 fc94 	bl	8002ec4 <USART_SendData>
        if(waitCallBack("OK", 20))
 800059c:	4807      	ldr	r0, [pc, #28]	; (80005bc <ESP_StartTCPServer+0x5c>)
 800059e:	f7ff ffcb 	bl	8000538 <waitCallBack.constprop.1>
 80005a2:	2800      	cmp	r0, #0
 80005a4:	d0e1      	beq.n	800056a <ESP_StartTCPServer+0xa>
            TCPServerFlag = 1;
 80005a6:	2001      	movs	r0, #1
 80005a8:	7020      	strb	r0, [r4, #0]
}
 80005aa:	bd38      	pop	{r3, r4, r5, pc}
 80005ac:	20000200 	.word	0x20000200
 80005b0:	08003dda 	.word	0x08003dda
 80005b4:	08003de8 	.word	0x08003de8
 80005b8:	20001368 	.word	0x20001368
 80005bc:	08003e10 	.word	0x08003e10

080005c0 <ESP_SetParamsSoftAP>:
{
 80005c0:	b538      	push	{r3, r4, r5, lr}
 80005c2:	460d      	mov	r5, r1
	if(ssid != NULL && password != NULL)
 80005c4:	4604      	mov	r4, r0
 80005c6:	b908      	cbnz	r0, 80005cc <ESP_SetParamsSoftAP+0xc>
	return 0;
 80005c8:	2000      	movs	r0, #0
 80005ca:	bd38      	pop	{r3, r4, r5, pc}
	if(ssid != NULL && password != NULL)
 80005cc:	2900      	cmp	r1, #0
 80005ce:	d0fb      	beq.n	80005c8 <ESP_SetParamsSoftAP+0x8>
		requestFlush();
 80005d0:	f7ff ff4e 	bl	8000470 <requestFlush>
		sprintf(request, "AT+CWSAP=\"%s\",\"%s\",5,3\r\n", ssid, password);
 80005d4:	462b      	mov	r3, r5
 80005d6:	4622      	mov	r2, r4
 80005d8:	490d      	ldr	r1, [pc, #52]	; (8000610 <ESP_SetParamsSoftAP+0x50>)
 80005da:	480e      	ldr	r0, [pc, #56]	; (8000614 <ESP_SetParamsSoftAP+0x54>)
 80005dc:	f002 fed0 	bl	8003380 <siprintf>
		RingBuff_Clear();
 80005e0:	f000 fa5e 	bl	8000aa0 <RingBuff_Clear>
		USART_SendData(request, strlen(request));
 80005e4:	480b      	ldr	r0, [pc, #44]	; (8000614 <ESP_SetParamsSoftAP+0x54>)
 80005e6:	f7ff fdb3 	bl	8000150 <strlen>
 80005ea:	4601      	mov	r1, r0
 80005ec:	4809      	ldr	r0, [pc, #36]	; (8000614 <ESP_SetParamsSoftAP+0x54>)
 80005ee:	f002 fc69 	bl	8002ec4 <USART_SendData>
		if(waitCallBack("OK", 20))
 80005f2:	4809      	ldr	r0, [pc, #36]	; (8000618 <ESP_SetParamsSoftAP+0x58>)
 80005f4:	f7ff ffa0 	bl	8000538 <waitCallBack.constprop.1>
 80005f8:	2800      	cmp	r0, #0
 80005fa:	d0e5      	beq.n	80005c8 <ESP_SetParamsSoftAP+0x8>
			USART_SendData("AT+RST\r\n", 8); //restart to apply settings
 80005fc:	2108      	movs	r1, #8
 80005fe:	4807      	ldr	r0, [pc, #28]	; (800061c <ESP_SetParamsSoftAP+0x5c>)
 8000600:	f002 fc60 	bl	8002ec4 <USART_SendData>
			delay(1000);
 8000604:	f44f 707a 	mov.w	r0, #1000	; 0x3e8
 8000608:	f002 f84a 	bl	80026a0 <delay>
			return 1;
 800060c:	2001      	movs	r0, #1
}
 800060e:	bd38      	pop	{r3, r4, r5, pc}
 8000610:	08003db8 	.word	0x08003db8
 8000614:	20001368 	.word	0x20001368
 8000618:	08003e10 	.word	0x08003e10
 800061c:	08003dd1 	.word	0x08003dd1

08000620 <ESP_SetMode>:
{
 8000620:	b510      	push	{r4, lr}
 8000622:	4604      	mov	r4, r0
	requestFlush();
 8000624:	f7ff ff24 	bl	8000470 <requestFlush>
	sprintf(request, "AT+CWMODE=%d\r\n", mode);
 8000628:	4622      	mov	r2, r4
 800062a:	490d      	ldr	r1, [pc, #52]	; (8000660 <ESP_SetMode+0x40>)
 800062c:	480d      	ldr	r0, [pc, #52]	; (8000664 <ESP_SetMode+0x44>)
 800062e:	f002 fea7 	bl	8003380 <siprintf>
	RingBuff_Clear();
 8000632:	f000 fa35 	bl	8000aa0 <RingBuff_Clear>
	USART_SendData(request, strlen(request));
 8000636:	480b      	ldr	r0, [pc, #44]	; (8000664 <ESP_SetMode+0x44>)
 8000638:	f7ff fd8a 	bl	8000150 <strlen>
 800063c:	4601      	mov	r1, r0
 800063e:	4809      	ldr	r0, [pc, #36]	; (8000664 <ESP_SetMode+0x44>)
 8000640:	f002 fc40 	bl	8002ec4 <USART_SendData>
	if(waitCallBack("OK", 20))
 8000644:	4808      	ldr	r0, [pc, #32]	; (8000668 <ESP_SetMode+0x48>)
 8000646:	f7ff ff77 	bl	8000538 <waitCallBack.constprop.1>
 800064a:	b140      	cbz	r0, 800065e <ESP_SetMode+0x3e>
		USART_SendData("AT+RST\r\n", 8); //restart to apply settings
 800064c:	2108      	movs	r1, #8
 800064e:	4807      	ldr	r0, [pc, #28]	; (800066c <ESP_SetMode+0x4c>)
 8000650:	f002 fc38 	bl	8002ec4 <USART_SendData>
		delay(1000);
 8000654:	f44f 707a 	mov.w	r0, #1000	; 0x3e8
 8000658:	f002 f822 	bl	80026a0 <delay>
 800065c:	2001      	movs	r0, #1
}
 800065e:	bd10      	pop	{r4, pc}
 8000660:	08003da9 	.word	0x08003da9
 8000664:	20001368 	.word	0x20001368
 8000668:	08003e10 	.word	0x08003e10
 800066c:	08003dd1 	.word	0x08003dd1

08000670 <ESP_SetModeSoftAP>:
	return ESP_SetMode(2);
 8000670:	2002      	movs	r0, #2
 8000672:	f7ff bfd5 	b.w	8000620 <ESP_SetMode>
	...

08000678 <ESP_SendData>:

uint8_t ESP_SendData(char *data, uint16_t dataLength, uint8_t flagRN)
{
 8000678:	b5f8      	push	{r3, r4, r5, r6, r7, lr}
 800067a:	4617      	mov	r7, r2
 800067c:	4604      	mov	r4, r0
 800067e:	460d      	mov	r5, r1
	requestFlush();
 8000680:	f7ff fef6 	bl	8000470 <requestFlush>
	sprintf(request, "AT+CIPSEND=%d,%d\r\n", linkID, flagRN ? (dataLength + 2) : dataLength);
 8000684:	4b15      	ldr	r3, [pc, #84]	; (80006dc <ESP_SendData+0x64>)
 8000686:	781a      	ldrb	r2, [r3, #0]
 8000688:	b1f7      	cbz	r7, 80006c8 <ESP_SendData+0x50>
 800068a:	1cab      	adds	r3, r5, #2
 800068c:	4914      	ldr	r1, [pc, #80]	; (80006e0 <ESP_SendData+0x68>)
 800068e:	4815      	ldr	r0, [pc, #84]	; (80006e4 <ESP_SendData+0x6c>)
 8000690:	f002 fe76 	bl	8003380 <siprintf>
	USART_SendData(request, strlen(request));
 8000694:	4813      	ldr	r0, [pc, #76]	; (80006e4 <ESP_SendData+0x6c>)
 8000696:	f7ff fd5b 	bl	8000150 <strlen>
 800069a:	4601      	mov	r1, r0
 800069c:	4811      	ldr	r0, [pc, #68]	; (80006e4 <ESP_SendData+0x6c>)
 800069e:	f002 fc11 	bl	8002ec4 <USART_SendData>

	if(waitCallBack(">", 20) && data != NULL)
 80006a2:	4811      	ldr	r0, [pc, #68]	; (80006e8 <ESP_SendData+0x70>)
 80006a4:	f7ff ff48 	bl	8000538 <waitCallBack.constprop.1>
 80006a8:	b1b0      	cbz	r0, 80006d8 <ESP_SendData+0x60>
 80006aa:	b1a4      	cbz	r4, 80006d6 <ESP_SendData+0x5e>
 80006ac:	4626      	mov	r6, r4
	{
		for(int i = 0; i < dataLength; i++)
 80006ae:	1b33      	subs	r3, r6, r4
 80006b0:	429d      	cmp	r5, r3
 80006b2:	dc0b      	bgt.n	80006cc <ESP_SendData+0x54>
		{
			USART_SendData_byte(data[i]);
		}
		if(flagRN)
 80006b4:	b11f      	cbz	r7, 80006be <ESP_SendData+0x46>
		{
			USART_SendData("\r\n", 2);
 80006b6:	2102      	movs	r1, #2
 80006b8:	480c      	ldr	r0, [pc, #48]	; (80006ec <ESP_SendData+0x74>)
 80006ba:	f002 fc03 	bl	8002ec4 <USART_SendData>
		}
	}
	else return 0;

	delay(100);
 80006be:	2064      	movs	r0, #100	; 0x64
 80006c0:	f001 ffee 	bl	80026a0 <delay>
//    if(waitCallBack("SEND OK", 100))
//    {
//        return 1;
//    }

	return 1;
 80006c4:	2001      	movs	r0, #1
 80006c6:	bdf8      	pop	{r3, r4, r5, r6, r7, pc}
	sprintf(request, "AT+CIPSEND=%d,%d\r\n", linkID, flagRN ? (dataLength + 2) : dataLength);
 80006c8:	462b      	mov	r3, r5
 80006ca:	e7df      	b.n	800068c <ESP_SendData+0x14>
			USART_SendData_byte(data[i]);
 80006cc:	f816 0b01 	ldrb.w	r0, [r6], #1
 80006d0:	f002 fbf0 	bl	8002eb4 <USART_SendData_byte>
 80006d4:	e7eb      	b.n	80006ae <ESP_SendData+0x36>
	else return 0;
 80006d6:	4620      	mov	r0, r4
}
 80006d8:	bdf8      	pop	{r3, r4, r5, r6, r7, pc}
 80006da:	bf00      	nop
 80006dc:	20001768 	.word	0x20001768
 80006e0:	08003d94 	.word	0x08003d94
 80006e4:	20001368 	.word	0x20001368
 80006e8:	08003da7 	.word	0x08003da7
 80006ec:	08003de5 	.word	0x08003de5

080006f0 <ESP_SendConstData>:

uint8_t ESP_SendConstData(const char *data, uint16_t dataLength, uint8_t flagRN)
{
 80006f0:	b5f8      	push	{r3, r4, r5, r6, r7, lr}
 80006f2:	4617      	mov	r7, r2
 80006f4:	4604      	mov	r4, r0
 80006f6:	460d      	mov	r5, r1
	requestFlush();
 80006f8:	f7ff feba 	bl	8000470 <requestFlush>
	sprintf(request, "AT+CIPSEND=%d,%d\r\n", linkID, flagRN ? (dataLength + 2) : dataLength);
 80006fc:	4b16      	ldr	r3, [pc, #88]	; (8000758 <ESP_SendConstData+0x68>)
 80006fe:	781a      	ldrb	r2, [r3, #0]
 8000700:	b30f      	cbz	r7, 8000746 <ESP_SendConstData+0x56>
 8000702:	1cab      	adds	r3, r5, #2
 8000704:	4915      	ldr	r1, [pc, #84]	; (800075c <ESP_SendConstData+0x6c>)
 8000706:	4816      	ldr	r0, [pc, #88]	; (8000760 <ESP_SendConstData+0x70>)
 8000708:	f002 fe3a 	bl	8003380 <siprintf>
	USART_SendData(request, strlen(request));
 800070c:	4814      	ldr	r0, [pc, #80]	; (8000760 <ESP_SendConstData+0x70>)
 800070e:	f7ff fd1f 	bl	8000150 <strlen>
 8000712:	4601      	mov	r1, r0
 8000714:	4812      	ldr	r0, [pc, #72]	; (8000760 <ESP_SendConstData+0x70>)
 8000716:	f002 fbd5 	bl	8002ec4 <USART_SendData>
	delay(200);
 800071a:	20c8      	movs	r0, #200	; 0xc8
 800071c:	f001 ffc0 	bl	80026a0 <delay>

	if(waitCallBack(">", 20) && data != NULL)
 8000720:	4810      	ldr	r0, [pc, #64]	; (8000764 <ESP_SendConstData+0x74>)
 8000722:	f7ff ff09 	bl	8000538 <waitCallBack.constprop.1>
 8000726:	b1b0      	cbz	r0, 8000756 <ESP_SendConstData+0x66>
 8000728:	b1a4      	cbz	r4, 8000754 <ESP_SendConstData+0x64>
 800072a:	4626      	mov	r6, r4
	{
		for(int i = 0; i < dataLength; i++)
 800072c:	1b33      	subs	r3, r6, r4
 800072e:	429d      	cmp	r5, r3
 8000730:	dc0b      	bgt.n	800074a <ESP_SendConstData+0x5a>
		{
			USART_SendData_byte(data[i]);
		}
		if(flagRN)
 8000732:	b11f      	cbz	r7, 800073c <ESP_SendConstData+0x4c>
		{
			USART_SendData("\r\n", 2);
 8000734:	2102      	movs	r1, #2
 8000736:	480c      	ldr	r0, [pc, #48]	; (8000768 <ESP_SendConstData+0x78>)
 8000738:	f002 fbc4 	bl	8002ec4 <USART_SendData>
		}
	}
	else return 0;
	delay(100);
 800073c:	2064      	movs	r0, #100	; 0x64
 800073e:	f001 ffaf 	bl	80026a0 <delay>
//    if(waitCallBack("SEND OK", 100))
//    {
//        return 1;
//    }

	return 1;
 8000742:	2001      	movs	r0, #1
 8000744:	bdf8      	pop	{r3, r4, r5, r6, r7, pc}
	sprintf(request, "AT+CIPSEND=%d,%d\r\n", linkID, flagRN ? (dataLength + 2) : dataLength);
 8000746:	462b      	mov	r3, r5
 8000748:	e7dc      	b.n	8000704 <ESP_SendConstData+0x14>
			USART_SendData_byte(data[i]);
 800074a:	f816 0b01 	ldrb.w	r0, [r6], #1
 800074e:	f002 fbb1 	bl	8002eb4 <USART_SendData_byte>
 8000752:	e7eb      	b.n	800072c <ESP_SendConstData+0x3c>
	else return 0;
 8000754:	4620      	mov	r0, r4
}
 8000756:	bdf8      	pop	{r3, r4, r5, r6, r7, pc}
 8000758:	20001768 	.word	0x20001768
 800075c:	08003d94 	.word	0x08003d94
 8000760:	20001368 	.word	0x20001368
 8000764:	08003da7 	.word	0x08003da7
 8000768:	08003de5 	.word	0x08003de5

0800076c <SetLinkID>:

void SetLinkID(uint8_t ID)
{
	linkID = ID;
 800076c:	4b01      	ldr	r3, [pc, #4]	; (8000774 <SetLinkID+0x8>)
 800076e:	7018      	strb	r0, [r3, #0]
 8000770:	4770      	bx	lr
 8000772:	bf00      	nop
 8000774:	20001768 	.word	0x20001768

08000778 <ESP_GetAnswer>:
}

char * ESP_GetAnswer(void)
{
	return answer;
}
 8000778:	4800      	ldr	r0, [pc, #0]	; (800077c <ESP_GetAnswer+0x4>)
 800077a:	4770      	bx	lr
 800077c:	20001568 	.word	0x20001568

08000780 <EncoderInit>:
#include "stdint.h"
#include "encoder_driver.h"

void EncoderInit(void)
{
	GPIO_Init();
 8000780:	f001 bfae 	b.w	80026e0 <GPIO_Init>

08000784 <Encoder_State>:
}

eState Encoder_State(void)
{
 8000784:	b510      	push	{r4, lr}
	eState res = eNone;
    if(GetButton())
 8000786:	f002 f81f 	bl	80027c8 <GetButton>
 800078a:	b120      	cbz	r0, 8000796 <Encoder_State+0x12>
    {
      res = eButton;
      ClearButton();
 800078c:	f002 f822 	bl	80027d4 <ClearButton>
      return res;
 8000790:	2403      	movs	r4, #3
			res = eLeft;
		}
	}
	ClearRotateStatus();
    return res;
}
 8000792:	4620      	mov	r0, r4
 8000794:	bd10      	pop	{r4, pc}
    if(GetRotateStatus())
 8000796:	f002 f823 	bl	80027e0 <GetRotateStatus>
 800079a:	b158      	cbz	r0, 80007b4 <Encoder_State+0x30>
		if(GetRotatePinA() == GetRotatePinB())
 800079c:	f002 f832 	bl	8002804 <GetRotatePinA>
 80007a0:	4604      	mov	r4, r0
 80007a2:	f002 f829 	bl	80027f8 <GetRotatePinB>
			res = eLeft;
 80007a6:	4284      	cmp	r4, r0
 80007a8:	bf0c      	ite	eq
 80007aa:	2402      	moveq	r4, #2
 80007ac:	2401      	movne	r4, #1
	ClearRotateStatus();
 80007ae:	f002 f81d 	bl	80027ec <ClearRotateStatus>
    return res;
 80007b2:	e7ee      	b.n	8000792 <Encoder_State+0xe>
	eState res = eNone;
 80007b4:	4604      	mov	r4, r0
 80007b6:	e7fa      	b.n	80007ae <Encoder_State+0x2a>

080007b8 <LDRInit>:
#include "ldr_driver.h"
#define N 10

void LDRInit(void)
{
	MX_ADC1_Init();
 80007b8:	f002 b934 	b.w	8002a24 <MX_ADC1_Init>

080007bc <LDR_Get>:
}

uint16_t LDR_Get(void)
{
 80007bc:	b5f8      	push	{r3, r4, r5, r6, r7, lr}
 80007be:	260a      	movs	r6, #10
	uint64_t adc = 0;
 80007c0:	2400      	movs	r4, #0
 80007c2:	2500      	movs	r5, #0
	uint16_t adc_value = 0;

	for(int i = 0; i < N; i++)
	{
		ADC1_Activate();
		adc += (4095 - ADC1_Get());
 80007c4:	f640 77ff 	movw	r7, #4095	; 0xfff
		ADC1_Activate();
 80007c8:	f002 f9a4 	bl	8002b14 <ADC1_Activate>
		adc += (4095 - ADC1_Get());
 80007cc:	f002 f9ca 	bl	8002b64 <ADC1_Get>
 80007d0:	1a38      	subs	r0, r7, r0
 80007d2:	1824      	adds	r4, r4, r0
 80007d4:	eb45 75e0 	adc.w	r5, r5, r0, asr #31
	for(int i = 0; i < N; i++)
 80007d8:	3e01      	subs	r6, #1
 80007da:	d1f5      	bne.n	80007c8 <LDR_Get+0xc>
	}
	adc_value = adc / N;
 80007dc:	220a      	movs	r2, #10
 80007de:	2300      	movs	r3, #0
 80007e0:	4620      	mov	r0, r4
 80007e2:	4629      	mov	r1, r5
 80007e4:	f7ff fcbc 	bl	8000160 <__aeabi_uldivmod>

	return adc_value;
}
 80007e8:	b280      	uxth	r0, r0
 80007ea:	bdf8      	pop	{r3, r4, r5, r6, r7, pc}

080007ec <LedInit>:

uint16_t led[3] = {0, 0, 0};

void LedInit(void)
{
	MX_TIM4_Init();
 80007ec:	f002 ba14 	b.w	8002c18 <MX_TIM4_Init>

080007f0 <Led_Set>:
}

void Led_Set(uint16_t red, uint16_t green, uint16_t blue)
{
	led[0] = red;
 80007f0:	4b02      	ldr	r3, [pc, #8]	; (80007fc <Led_Set+0xc>)
 80007f2:	8018      	strh	r0, [r3, #0]
	led[1] = green;
 80007f4:	8059      	strh	r1, [r3, #2]
	led[2] = blue;
 80007f6:	809a      	strh	r2, [r3, #4]
 80007f8:	4770      	bx	lr
 80007fa:	bf00      	nop
 80007fc:	20000202 	.word	0x20000202

08000800 <Led_Set_Color>:
}

void Led_Set_Color(color color, uint16_t value)
{
	switch(color)
 8000800:	2801      	cmp	r0, #1
 8000802:	d006      	beq.n	8000812 <Led_Set_Color+0x12>
 8000804:	d302      	bcc.n	800080c <Led_Set_Color+0xc>
 8000806:	2802      	cmp	r0, #2
 8000808:	d006      	beq.n	8000818 <Led_Set_Color+0x18>
 800080a:	4770      	bx	lr
	{
		case eRed: led[0] = value; break;
 800080c:	4b04      	ldr	r3, [pc, #16]	; (8000820 <Led_Set_Color+0x20>)
 800080e:	8019      	strh	r1, [r3, #0]
 8000810:	4770      	bx	lr
		case eGreen: led[1] = value; break;
 8000812:	4b03      	ldr	r3, [pc, #12]	; (8000820 <Led_Set_Color+0x20>)
 8000814:	8059      	strh	r1, [r3, #2]
 8000816:	4770      	bx	lr
		case eBlue: led[2] = value; break;
 8000818:	4b01      	ldr	r3, [pc, #4]	; (8000820 <Led_Set_Color+0x20>)
 800081a:	8099      	strh	r1, [r3, #4]
 800081c:	4770      	bx	lr
 800081e:	bf00      	nop
 8000820:	20000202 	.word	0x20000202

08000824 <Led_Get_Color>:

}

uint16_t Led_Get_Color(color color)
{
	switch(color)
 8000824:	2801      	cmp	r0, #1
 8000826:	d007      	beq.n	8000838 <Led_Get_Color+0x14>
 8000828:	d303      	bcc.n	8000832 <Led_Get_Color+0xe>
 800082a:	2802      	cmp	r0, #2
 800082c:	d007      	beq.n	800083e <Led_Get_Color+0x1a>
		case eRed: return led[0]; break;
		case eGreen: return led[1]; break;
		case eBlue: return led[2]; break;
		default: break;
	}
	return 0;
 800082e:	2000      	movs	r0, #0
}
 8000830:	4770      	bx	lr
		case eRed: return led[0]; break;
 8000832:	4b04      	ldr	r3, [pc, #16]	; (8000844 <Led_Get_Color+0x20>)
 8000834:	8818      	ldrh	r0, [r3, #0]
 8000836:	4770      	bx	lr
		case eGreen: return led[1]; break;
 8000838:	4b02      	ldr	r3, [pc, #8]	; (8000844 <Led_Get_Color+0x20>)
 800083a:	8858      	ldrh	r0, [r3, #2]
 800083c:	4770      	bx	lr
		case eBlue: return led[2]; break;
 800083e:	4b01      	ldr	r3, [pc, #4]	; (8000844 <Led_Get_Color+0x20>)
 8000840:	8898      	ldrh	r0, [r3, #4]
 8000842:	4770      	bx	lr
 8000844:	20000202 	.word	0x20000202

08000848 <Led_Refresh>:

	return map_res;
}

void Led_Refresh(uint16_t max_value)
{
 8000848:	b570      	push	{r4, r5, r6, lr}
	uint16_t map_res = value * max_value / 4095;
 800084a:	f640 75ff 	movw	r5, #4095	; 0xfff
	TIM4_SET_CH1(map(led[0], max_value));
 800084e:	4e11      	ldr	r6, [pc, #68]	; (8000894 <Led_Refresh+0x4c>)
{
 8000850:	4604      	mov	r4, r0
	uint16_t map_res = value * max_value / 4095;
 8000852:	8830      	ldrh	r0, [r6, #0]
 8000854:	42a8      	cmp	r0, r5
 8000856:	bf28      	it	cs
 8000858:	4628      	movcs	r0, r5
 800085a:	4360      	muls	r0, r4
 800085c:	fb90 f0f5 	sdiv	r0, r0, r5
	TIM4_SET_CH1(map(led[0], max_value));
 8000860:	b280      	uxth	r0, r0
 8000862:	f002 fa67 	bl	8002d34 <TIM4_SET_CH1>
	uint16_t map_res = value * max_value / 4095;
 8000866:	8870      	ldrh	r0, [r6, #2]
 8000868:	42a8      	cmp	r0, r5
 800086a:	bf28      	it	cs
 800086c:	4628      	movcs	r0, r5
 800086e:	4360      	muls	r0, r4
 8000870:	fb90 f0f5 	sdiv	r0, r0, r5
	TIM4_SET_CH2(map(led[1], max_value));
 8000874:	b280      	uxth	r0, r0
 8000876:	f002 fa63 	bl	8002d40 <TIM4_SET_CH2>
	uint16_t map_res = value * max_value / 4095;
 800087a:	88b0      	ldrh	r0, [r6, #4]
 800087c:	42a8      	cmp	r0, r5
 800087e:	bf28      	it	cs
 8000880:	4628      	movcs	r0, r5
 8000882:	4360      	muls	r0, r4
 8000884:	fb90 f0f5 	sdiv	r0, r0, r5
	TIM4_SET_CH3(map(led[2], max_value));
}
 8000888:	e8bd 4070 	ldmia.w	sp!, {r4, r5, r6, lr}
	TIM4_SET_CH3(map(led[2], max_value));
 800088c:	b280      	uxth	r0, r0
 800088e:	f002 ba5d 	b.w	8002d4c <TIM4_SET_CH3>
 8000892:	bf00      	nop
 8000894:	20000202 	.word	0x20000202

08000898 <PICKER>:
const char statusOK_CL0[] = {"HTTP/1.1 200 OK\r\nConnection: Keep-Alive\r\nContent-Type: text/html\r\nContent-Length: 0"};

const char statusNOTFOUND[] = {"HTTP/1.1 404 Not Found\r\n"};

void PICKER()
{
 8000898:	b570      	push	{r4, r5, r6, lr}
	char hex[7] = {0x00, 0x00, 0x00}, ContentLength[22];
 800089a:	2400      	movs	r4, #0
{
 800089c:	b08a      	sub	sp, #40	; 0x28

	ESP_SendConstData(statusOK, strlen(statusOK), 1);
 800089e:	2201      	movs	r2, #1
 80008a0:	2140      	movs	r1, #64	; 0x40
 80008a2:	4820      	ldr	r0, [pc, #128]	; (8000924 <PICKER+0x8c>)
	char hex[7] = {0x00, 0x00, 0x00}, ContentLength[22];
 80008a4:	9402      	str	r4, [sp, #8]
 80008a6:	f8cd 400b 	str.w	r4, [sp, #11]
	ESP_SendConstData(statusOK, strlen(statusOK), 1);
 80008aa:	f7ff ff21 	bl	80006f0 <ESP_SendConstData>

	int length = strlen(htmlpicker1) + strlen(htmlpicker2) + 6;
	sprintf(ContentLength, "Content-Length: %04d\r\n", length);
 80008ae:	f240 128f 	movw	r2, #399	; 0x18f
 80008b2:	491d      	ldr	r1, [pc, #116]	; (8000928 <PICKER+0x90>)
 80008b4:	a804      	add	r0, sp, #16
 80008b6:	f002 fd63 	bl	8003380 <siprintf>
	ESP_SendData(ContentLength, 22, 1);
 80008ba:	2201      	movs	r2, #1
 80008bc:	2116      	movs	r1, #22
 80008be:	a804      	add	r0, sp, #16
 80008c0:	f7ff feda 	bl	8000678 <ESP_SendData>

	sprintf(hex, "%02x%02x%02x", Led_Get_Color(eRed)*255/4095, Led_Get_Color(eGreen)*255/4095, Led_Get_Color(eBlue)*255/4095);
 80008c4:	4620      	mov	r0, r4
 80008c6:	f7ff ffad 	bl	8000824 <Led_Get_Color>
 80008ca:	4605      	mov	r5, r0
 80008cc:	2001      	movs	r0, #1
 80008ce:	f7ff ffa9 	bl	8000824 <Led_Get_Color>
 80008d2:	4606      	mov	r6, r0
 80008d4:	2002      	movs	r0, #2
 80008d6:	f7ff ffa5 	bl	8000824 <Led_Get_Color>
 80008da:	f640 72ff 	movw	r2, #4095	; 0xfff
 80008de:	ebc0 2000 	rsb	r0, r0, r0, lsl #8
 80008e2:	fb90 f0f2 	sdiv	r0, r0, r2
 80008e6:	ebc6 2606 	rsb	r6, r6, r6, lsl #8
 80008ea:	ebc5 2505 	rsb	r5, r5, r5, lsl #8
 80008ee:	fb96 f3f2 	sdiv	r3, r6, r2
 80008f2:	9000      	str	r0, [sp, #0]
 80008f4:	fb95 f2f2 	sdiv	r2, r5, r2
 80008f8:	490c      	ldr	r1, [pc, #48]	; (800092c <PICKER+0x94>)
 80008fa:	a802      	add	r0, sp, #8
 80008fc:	f002 fd40 	bl	8003380 <siprintf>

	ESP_SendConstData(htmlpicker1, strlen(htmlpicker1), 0);
 8000900:	4622      	mov	r2, r4
 8000902:	f44f 7191 	mov.w	r1, #290	; 0x122
 8000906:	480a      	ldr	r0, [pc, #40]	; (8000930 <PICKER+0x98>)
 8000908:	f7ff fef2 	bl	80006f0 <ESP_SendConstData>
	ESP_SendData(hex, 6, 0);
 800090c:	4622      	mov	r2, r4
 800090e:	2106      	movs	r1, #6
 8000910:	a802      	add	r0, sp, #8
 8000912:	f7ff feb1 	bl	8000678 <ESP_SendData>
	ESP_SendConstData(htmlpicker2, strlen(htmlpicker2), 1);
 8000916:	2201      	movs	r2, #1
 8000918:	2167      	movs	r1, #103	; 0x67
 800091a:	4806      	ldr	r0, [pc, #24]	; (8000934 <PICKER+0x9c>)
 800091c:	f7ff fee8 	bl	80006f0 <ESP_SendConstData>
}
 8000920:	b00a      	add	sp, #40	; 0x28
 8000922:	bd70      	pop	{r4, r5, r6, pc}
 8000924:	08003ff6 	.word	0x08003ff6
 8000928:	08003e24 	.word	0x08003e24
 800092c:	08003e3b 	.word	0x08003e3b
 8000930:	08003e52 	.word	0x08003e52
 8000934:	08003f75 	.word	0x08003f75

08000938 <PickerParseLed>:

void PickerParseLed()
{
 8000938:	b57f      	push	{r0, r1, r2, r3, r4, r5, r6, lr}
	char * search;
	search = strstr(ESP_GetAnswer(), "?picker=%");
 800093a:	f7ff ff1d 	bl	8000778 <ESP_GetAnswer>
 800093e:	4920      	ldr	r1, [pc, #128]	; (80009c0 <PickerParseLed+0x88>)
 8000940:	f002 fd42 	bl	80033c8 <strstr>
	if(search != NULL)
 8000944:	4606      	mov	r6, r0
 8000946:	2800      	cmp	r0, #0
 8000948:	d038      	beq.n	80009bc <PickerParseLed+0x84>
	{
		char hex[2];
		uint16_t colors[3] = {0, 0, 0};
 800094a:	2400      	movs	r4, #0
 800094c:	f8ad 4008 	strh.w	r4, [sp, #8]
 8000950:	f8ad 400a 	strh.w	r4, [sp, #10]
 8000954:	f8ad 400c 	strh.w	r4, [sp, #12]
		for(int i = 0, l = 0; i < 6; i += 2, l++)
		{
			int position = search - ESP_GetAnswer() + 11 + i;
 8000958:	f7ff ff0e 	bl	8000778 <ESP_GetAnswer>
 800095c:	1a35      	subs	r5, r6, r0
			hex[0] = ESP_GetAnswer()[position];
 800095e:	f7ff ff0b 	bl	8000778 <ESP_GetAnswer>
			int position = search - ESP_GetAnswer() + 11 + i;
 8000962:	350b      	adds	r5, #11
 8000964:	4425      	add	r5, r4
			hex[0] = ESP_GetAnswer()[position];
 8000966:	5d43      	ldrb	r3, [r0, r5]
 8000968:	f88d 3004 	strb.w	r3, [sp, #4]
			hex[1] = ESP_GetAnswer()[position + 1];
 800096c:	f7ff ff04 	bl	8000778 <ESP_GetAnswer>
 8000970:	4428      	add	r0, r5
 8000972:	7843      	ldrb	r3, [r0, #1]
			colors[l] = strtol(hex, NULL, 16);
 8000974:	2210      	movs	r2, #16
 8000976:	2100      	movs	r1, #0
 8000978:	a801      	add	r0, sp, #4
			hex[1] = ESP_GetAnswer()[position + 1];
 800097a:	f88d 3005 	strb.w	r3, [sp, #5]
			colors[l] = strtol(hex, NULL, 16);
 800097e:	f002 fdbf 	bl	8003500 <strtol>
 8000982:	ab02      	add	r3, sp, #8
 8000984:	5318      	strh	r0, [r3, r4]
		for(int i = 0, l = 0; i < 6; i += 2, l++)
 8000986:	3402      	adds	r4, #2
 8000988:	2c06      	cmp	r4, #6
 800098a:	d1e5      	bne.n	8000958 <PickerParseLed+0x20>
		}
		Led_Set(colors[0]*4095/255, colors[1]*4095/255, colors[2]*4095/255);
 800098c:	23ff      	movs	r3, #255	; 0xff
 800098e:	f8bd 200c 	ldrh.w	r2, [sp, #12]
 8000992:	f8bd 100a 	ldrh.w	r1, [sp, #10]
 8000996:	f8bd 0008 	ldrh.w	r0, [sp, #8]
 800099a:	ebc2 3202 	rsb	r2, r2, r2, lsl #12
 800099e:	ebc1 3101 	rsb	r1, r1, r1, lsl #12
 80009a2:	ebc0 3000 	rsb	r0, r0, r0, lsl #12
 80009a6:	fb92 f2f3 	sdiv	r2, r2, r3
 80009aa:	fb91 f1f3 	sdiv	r1, r1, r3
 80009ae:	fb90 f0f3 	sdiv	r0, r0, r3
 80009b2:	b292      	uxth	r2, r2
 80009b4:	b289      	uxth	r1, r1
 80009b6:	b280      	uxth	r0, r0
 80009b8:	f7ff ff1a 	bl	80007f0 <Led_Set>
	}
}
 80009bc:	b004      	add	sp, #16
 80009be:	bd70      	pop	{r4, r5, r6, pc}
 80009c0:	08003e48 	.word	0x08003e48

080009c4 <PICKER_parse>:

void PICKER_parse()
{
 80009c4:	b508      	push	{r3, lr}
	PickerParseLed();
 80009c6:	f7ff ffb7 	bl	8000938 <PickerParseLed>

	PICKER();
}
 80009ca:	e8bd 4008 	ldmia.w	sp!, {r3, lr}
	PICKER();
 80009ce:	f7ff bf63 	b.w	8000898 <PICKER>

080009d2 <requestConstFind>:

uint8_t requestConstFind(const char * key)
{
 80009d2:	b510      	push	{r4, lr}
 80009d4:	4604      	mov	r4, r0
	if(strstr(ESP_GetAnswer(), key) != NULL)
 80009d6:	f7ff fecf 	bl	8000778 <ESP_GetAnswer>
 80009da:	4621      	mov	r1, r4
 80009dc:	f002 fcf4 	bl	80033c8 <strstr>
	{
		return 1;
	}
	return 0;
}
 80009e0:	3000      	adds	r0, #0
 80009e2:	bf18      	it	ne
 80009e4:	2001      	movne	r0, #1
 80009e6:	bd10      	pop	{r4, pc}

080009e8 <ESP_Request>:


void ESP_Request(const char ** pages, const foo * functions, uint8_t number)
{
 80009e8:	e92d 41f0 	stmdb	sp!, {r4, r5, r6, r7, r8, lr}
 80009ec:	460e      	mov	r6, r1
 80009ee:	4617      	mov	r7, r2
 80009f0:	4605      	mov	r5, r0
	uint8_t linkID = requestRefresh();
 80009f2:	f7ff fd4f 	bl	8000494 <requestRefresh>
 80009f6:	4604      	mov	r4, r0
	SetLinkID(linkID);
 80009f8:	f7ff feb8 	bl	800076c <SetLinkID>

	if(linkID >= 0 && linkID < 5)
 80009fc:	2c04      	cmp	r4, #4
 80009fe:	d819      	bhi.n	8000a34 <ESP_Request+0x4c>
 8000a00:	2400      	movs	r4, #0
	{
		for(int i = 0; i < number; i++)
 8000a02:	42bc      	cmp	r4, r7
 8000a04:	db06      	blt.n	8000a14 <ESP_Request+0x2c>
			{
				functions[i]();
				return;
			}
		}
		ESP_SendConstData(statusNOTFOUND, strlen(statusNOTFOUND), 1);
 8000a06:	2201      	movs	r2, #1
	}
	else return;
}
 8000a08:	e8bd 41f0 	ldmia.w	sp!, {r4, r5, r6, r7, r8, lr}
		ESP_SendConstData(statusNOTFOUND, strlen(statusNOTFOUND), 1);
 8000a0c:	2118      	movs	r1, #24
 8000a0e:	480a      	ldr	r0, [pc, #40]	; (8000a38 <ESP_Request+0x50>)
 8000a10:	f7ff be6e 	b.w	80006f0 <ESP_SendConstData>
			if(pages != NULL
 8000a14:	b165      	cbz	r5, 8000a30 <ESP_Request+0x48>
		       && functions != NULL
 8000a16:	b15e      	cbz	r6, 8000a30 <ESP_Request+0x48>
		       && requestConstFind(pages[i]))
 8000a18:	f855 0024 	ldr.w	r0, [r5, r4, lsl #2]
 8000a1c:	ea4f 0884 	mov.w	r8, r4, lsl #2
 8000a20:	f7ff ffd7 	bl	80009d2 <requestConstFind>
 8000a24:	b120      	cbz	r0, 8000a30 <ESP_Request+0x48>
				functions[i]();
 8000a26:	f856 3008 	ldr.w	r3, [r6, r8]
}
 8000a2a:	e8bd 41f0 	ldmia.w	sp!, {r4, r5, r6, r7, r8, lr}
				functions[i]();
 8000a2e:	4718      	bx	r3
		for(int i = 0; i < number; i++)
 8000a30:	3401      	adds	r4, #1
 8000a32:	e7e6      	b.n	8000a02 <ESP_Request+0x1a>
 8000a34:	e8bd 81f0 	ldmia.w	sp!, {r4, r5, r6, r7, r8, pc}
 8000a38:	08003fdd 	.word	0x08003fdd

08000a3c <RingBuff_Init>:
uint16_t index_in, index_out;
char buffer[BUF_SIZE];

void RingBuff_Init()
{
	index_in = index_out = 0;
 8000a3c:	2300      	movs	r3, #0
 8000a3e:	4a02      	ldr	r2, [pc, #8]	; (8000a48 <RingBuff_Init+0xc>)
 8000a40:	8013      	strh	r3, [r2, #0]
 8000a42:	4a02      	ldr	r2, [pc, #8]	; (8000a4c <RingBuff_Init+0x10>)
 8000a44:	8013      	strh	r3, [r2, #0]
 8000a46:	4770      	bx	lr
 8000a48:	2000176a 	.word	0x2000176a
 8000a4c:	2000196c 	.word	0x2000196c

08000a50 <RingBuff_Push>:
}

void RingBuff_Push(char element)
{
	buffer[index_in++] = element;
 8000a50:	4a04      	ldr	r2, [pc, #16]	; (8000a64 <RingBuff_Push+0x14>)
 8000a52:	4905      	ldr	r1, [pc, #20]	; (8000a68 <RingBuff_Push+0x18>)
 8000a54:	8813      	ldrh	r3, [r2, #0]
 8000a56:	54c8      	strb	r0, [r1, r3]
 8000a58:	3301      	adds	r3, #1
	index_in &= BUF_MASK;
 8000a5a:	f3c3 0308 	ubfx	r3, r3, #0, #9
 8000a5e:	8013      	strh	r3, [r2, #0]
 8000a60:	4770      	bx	lr
 8000a62:	bf00      	nop
 8000a64:	2000196c 	.word	0x2000196c
 8000a68:	2000176c 	.word	0x2000176c

08000a6c <RingBuff_Pop>:
}

char RingBuff_Pop()
{
	char element = buffer[index_out++];
 8000a6c:	4a04      	ldr	r2, [pc, #16]	; (8000a80 <RingBuff_Pop+0x14>)
 8000a6e:	4905      	ldr	r1, [pc, #20]	; (8000a84 <RingBuff_Pop+0x18>)
 8000a70:	8813      	ldrh	r3, [r2, #0]
 8000a72:	5cc8      	ldrb	r0, [r1, r3]
 8000a74:	3301      	adds	r3, #1
	index_out &= BUF_MASK;
 8000a76:	f3c3 0308 	ubfx	r3, r3, #0, #9
 8000a7a:	8013      	strh	r3, [r2, #0]
	return element;
}
 8000a7c:	4770      	bx	lr
 8000a7e:	bf00      	nop
 8000a80:	2000176a 	.word	0x2000176a
 8000a84:	2000176c 	.word	0x2000176c

08000a88 <RingBuff_IsEmpty>:

uint8_t RingBuff_IsEmpty()
{
	if (index_in == index_out)
 8000a88:	4b03      	ldr	r3, [pc, #12]	; (8000a98 <RingBuff_IsEmpty+0x10>)
 8000a8a:	8818      	ldrh	r0, [r3, #0]
 8000a8c:	4b03      	ldr	r3, [pc, #12]	; (8000a9c <RingBuff_IsEmpty+0x14>)
 8000a8e:	881b      	ldrh	r3, [r3, #0]
		return 1;
	return 0;
}
 8000a90:	1ac3      	subs	r3, r0, r3
 8000a92:	4258      	negs	r0, r3
 8000a94:	4158      	adcs	r0, r3
 8000a96:	4770      	bx	lr
 8000a98:	2000196c 	.word	0x2000196c
 8000a9c:	2000176a 	.word	0x2000176a

08000aa0 <RingBuff_Clear>:

void RingBuff_Clear()
{
	index_out = index_in = 0;
 8000aa0:	2300      	movs	r3, #0
 8000aa2:	4a02      	ldr	r2, [pc, #8]	; (8000aac <RingBuff_Clear+0xc>)
 8000aa4:	8013      	strh	r3, [r2, #0]
 8000aa6:	4a02      	ldr	r2, [pc, #8]	; (8000ab0 <RingBuff_Clear+0x10>)
 8000aa8:	8013      	strh	r3, [r2, #0]
 8000aaa:	4770      	bx	lr
 8000aac:	2000196c 	.word	0x2000196c
 8000ab0:	2000176a 	.word	0x2000176a

08000ab4 <HAL_Init>:
    defined(STM32F102x6) || defined(STM32F102xB) || \
    defined(STM32F103x6) || defined(STM32F103xB) || defined(STM32F103xE) || defined(STM32F103xG) || \
    defined(STM32F105xC) || defined(STM32F107xC)

  /* Prefetch buffer is not available on value line devices */
  __HAL_FLASH_PREFETCH_BUFFER_ENABLE();
 8000ab4:	4a07      	ldr	r2, [pc, #28]	; (8000ad4 <HAL_Init+0x20>)
{
 8000ab6:	b508      	push	{r3, lr}
  __HAL_FLASH_PREFETCH_BUFFER_ENABLE();
 8000ab8:	6813      	ldr	r3, [r2, #0]
#endif
#endif /* PREFETCH_ENABLE */

  /* Set Interrupt Group Priority */
  HAL_NVIC_SetPriorityGrouping(NVIC_PRIORITYGROUP_4);
 8000aba:	2003      	movs	r0, #3
  __HAL_FLASH_PREFETCH_BUFFER_ENABLE();
 8000abc:	f043 0310 	orr.w	r3, r3, #16
 8000ac0:	6013      	str	r3, [r2, #0]
  HAL_NVIC_SetPriorityGrouping(NVIC_PRIORITYGROUP_4);
 8000ac2:	f000 f815 	bl	8000af0 <HAL_NVIC_SetPriorityGrouping>

  /* Use systick as time base source and configure 1ms tick (default clock after Reset is HSI) */
  HAL_InitTick(TICK_INT_PRIORITY);
 8000ac6:	2000      	movs	r0, #0
 8000ac8:	f002 fb6e 	bl	80031a8 <HAL_InitTick>

  /* Init the low level hardware */
  HAL_MspInit();
 8000acc:	f002 fb44 	bl	8003158 <HAL_MspInit>

  /* Return function status */
  return HAL_OK;
}
 8000ad0:	2000      	movs	r0, #0
 8000ad2:	bd08      	pop	{r3, pc}
 8000ad4:	40022000 	.word	0x40022000

08000ad8 <HAL_IncTick>:
  *      implementations in user file.
  * @retval None
  */
__weak void HAL_IncTick(void)
{
  uwTick += uwTickFreq;
 8000ad8:	4a03      	ldr	r2, [pc, #12]	; (8000ae8 <HAL_IncTick+0x10>)
 8000ada:	4b04      	ldr	r3, [pc, #16]	; (8000aec <HAL_IncTick+0x14>)
 8000adc:	6811      	ldr	r1, [r2, #0]
 8000ade:	781b      	ldrb	r3, [r3, #0]
 8000ae0:	440b      	add	r3, r1
 8000ae2:	6013      	str	r3, [r2, #0]
 8000ae4:	4770      	bx	lr
 8000ae6:	bf00      	nop
 8000ae8:	20001970 	.word	0x20001970
 8000aec:	20000008 	.word	0x20000008

08000af0 <HAL_NVIC_SetPriorityGrouping>:
__STATIC_INLINE void NVIC_SetPriorityGrouping(uint32_t PriorityGroup)
{
  uint32_t reg_value;
  uint32_t PriorityGroupTmp = (PriorityGroup & (uint32_t)0x07UL);             /* only values 0..7 are used          */

  reg_value  =  SCB->AIRCR;                                                   /* read old register configuration    */
 8000af0:	4a07      	ldr	r2, [pc, #28]	; (8000b10 <HAL_NVIC_SetPriorityGrouping+0x20>)
  reg_value &= ~((uint32_t)(SCB_AIRCR_VECTKEY_Msk | SCB_AIRCR_PRIGROUP_Msk)); /* clear bits to change               */
  reg_value  =  (reg_value                                   |
                ((uint32_t)0x5FAUL << SCB_AIRCR_VECTKEY_Pos) |
                (PriorityGroupTmp << 8U)                      );              /* Insert write key and priorty group */
 8000af2:	0200      	lsls	r0, r0, #8
  reg_value  =  SCB->AIRCR;                                                   /* read old register configuration    */
 8000af4:	68d3      	ldr	r3, [r2, #12]
                (PriorityGroupTmp << 8U)                      );              /* Insert write key and priorty group */
 8000af6:	f400 60e0 	and.w	r0, r0, #1792	; 0x700
  reg_value &= ~((uint32_t)(SCB_AIRCR_VECTKEY_Msk | SCB_AIRCR_PRIGROUP_Msk)); /* clear bits to change               */
 8000afa:	f423 63e0 	bic.w	r3, r3, #1792	; 0x700
 8000afe:	041b      	lsls	r3, r3, #16
 8000b00:	0c1b      	lsrs	r3, r3, #16
 8000b02:	f043 63bf 	orr.w	r3, r3, #100139008	; 0x5f80000
 8000b06:	f443 3300 	orr.w	r3, r3, #131072	; 0x20000
  reg_value  =  (reg_value                                   |
 8000b0a:	4303      	orrs	r3, r0
  SCB->AIRCR =  reg_value;
 8000b0c:	60d3      	str	r3, [r2, #12]
 8000b0e:	4770      	bx	lr
 8000b10:	e000ed00 	.word	0xe000ed00

08000b14 <HAL_NVIC_SetPriority>:
  \details Reads the priority grouping field from the NVIC Interrupt Controller.
  \return                Priority grouping field (SCB->AIRCR [10:8] PRIGROUP field).
 */
__STATIC_INLINE uint32_t NVIC_GetPriorityGrouping(void)
{
  return ((uint32_t)((SCB->AIRCR & SCB_AIRCR_PRIGROUP_Msk) >> SCB_AIRCR_PRIGROUP_Pos));
 8000b14:	4b17      	ldr	r3, [pc, #92]	; (8000b74 <HAL_NVIC_SetPriority+0x60>)
  *         This parameter can be a value between 0 and 15
  *         A lower priority value indicates a higher priority.          
  * @retval None
  */
void HAL_NVIC_SetPriority(IRQn_Type IRQn, uint32_t PreemptPriority, uint32_t SubPriority)
{ 
 8000b16:	b530      	push	{r4, r5, lr}
 8000b18:	68dc      	ldr	r4, [r3, #12]
 8000b1a:	f3c4 2402 	ubfx	r4, r4, #8, #3
{
  uint32_t PriorityGroupTmp = (PriorityGroup & (uint32_t)0x07UL);   /* only values 0..7 are used          */
  uint32_t PreemptPriorityBits;
  uint32_t SubPriorityBits;

  PreemptPriorityBits = ((7UL - PriorityGroupTmp) > (uint32_t)(__NVIC_PRIO_BITS)) ? (uint32_t)(__NVIC_PRIO_BITS) : (uint32_t)(7UL - PriorityGroupTmp);
 8000b1e:	f1c4 0307 	rsb	r3, r4, #7
  SubPriorityBits     = ((PriorityGroupTmp + (uint32_t)(__NVIC_PRIO_BITS)) < (uint32_t)7UL) ? (uint32_t)0UL : (uint32_t)((PriorityGroupTmp - 7UL) + (uint32_t)(__NVIC_PRIO_BITS));
 8000b22:	1d25      	adds	r5, r4, #4
  PreemptPriorityBits = ((7UL - PriorityGroupTmp) > (uint32_t)(__NVIC_PRIO_BITS)) ? (uint32_t)(__NVIC_PRIO_BITS) : (uint32_t)(7UL - PriorityGroupTmp);
 8000b24:	2b04      	cmp	r3, #4
 8000b26:	bf28      	it	cs
 8000b28:	2304      	movcs	r3, #4
  SubPriorityBits     = ((PriorityGroupTmp + (uint32_t)(__NVIC_PRIO_BITS)) < (uint32_t)7UL) ? (uint32_t)0UL : (uint32_t)((PriorityGroupTmp - 7UL) + (uint32_t)(__NVIC_PRIO_BITS));
 8000b2a:	2d06      	cmp	r5, #6

  return (
           ((PreemptPriority & (uint32_t)((1UL << (PreemptPriorityBits)) - 1UL)) << SubPriorityBits) |
 8000b2c:	f04f 0501 	mov.w	r5, #1
  SubPriorityBits     = ((PriorityGroupTmp + (uint32_t)(__NVIC_PRIO_BITS)) < (uint32_t)7UL) ? (uint32_t)0UL : (uint32_t)((PriorityGroupTmp - 7UL) + (uint32_t)(__NVIC_PRIO_BITS));
 8000b30:	bf98      	it	ls
 8000b32:	2400      	movls	r4, #0
           ((PreemptPriority & (uint32_t)((1UL << (PreemptPriorityBits)) - 1UL)) << SubPriorityBits) |
 8000b34:	fa05 f303 	lsl.w	r3, r5, r3
 8000b38:	f103 33ff 	add.w	r3, r3, #4294967295
  SubPriorityBits     = ((PriorityGroupTmp + (uint32_t)(__NVIC_PRIO_BITS)) < (uint32_t)7UL) ? (uint32_t)0UL : (uint32_t)((PriorityGroupTmp - 7UL) + (uint32_t)(__NVIC_PRIO_BITS));
 8000b3c:	bf88      	it	hi
 8000b3e:	3c03      	subhi	r4, #3
           ((PreemptPriority & (uint32_t)((1UL << (PreemptPriorityBits)) - 1UL)) << SubPriorityBits) |
 8000b40:	4019      	ands	r1, r3
 8000b42:	40a1      	lsls	r1, r4
           ((SubPriority     & (uint32_t)((1UL << (SubPriorityBits    )) - 1UL)))
 8000b44:	fa05 f404 	lsl.w	r4, r5, r4
 8000b48:	3c01      	subs	r4, #1
 8000b4a:	4022      	ands	r2, r4
  if ((int32_t)(IRQn) < 0)
 8000b4c:	2800      	cmp	r0, #0
           ((PreemptPriority & (uint32_t)((1UL << (PreemptPriorityBits)) - 1UL)) << SubPriorityBits) |
 8000b4e:	ea42 0201 	orr.w	r2, r2, r1
 8000b52:	ea4f 1202 	mov.w	r2, r2, lsl #4
    NVIC->IP[((uint32_t)(int32_t)IRQn)]               = (uint8_t)((priority << (8U - __NVIC_PRIO_BITS)) & (uint32_t)0xFFUL);
 8000b56:	bfaf      	iteee	ge
 8000b58:	f100 4060 	addge.w	r0, r0, #3758096384	; 0xe0000000
    SCB->SHP[(((uint32_t)(int32_t)IRQn) & 0xFUL)-4UL] = (uint8_t)((priority << (8U - __NVIC_PRIO_BITS)) & (uint32_t)0xFFUL);
 8000b5c:	4b06      	ldrlt	r3, [pc, #24]	; (8000b78 <HAL_NVIC_SetPriority+0x64>)
 8000b5e:	f000 000f 	andlt.w	r0, r0, #15
 8000b62:	b2d2      	uxtblt	r2, r2
    NVIC->IP[((uint32_t)(int32_t)IRQn)]               = (uint8_t)((priority << (8U - __NVIC_PRIO_BITS)) & (uint32_t)0xFFUL);
 8000b64:	bfa5      	ittet	ge
 8000b66:	b2d2      	uxtbge	r2, r2
 8000b68:	f500 4061 	addge.w	r0, r0, #57600	; 0xe100
    SCB->SHP[(((uint32_t)(int32_t)IRQn) & 0xFUL)-4UL] = (uint8_t)((priority << (8U - __NVIC_PRIO_BITS)) & (uint32_t)0xFFUL);
 8000b6c:	541a      	strblt	r2, [r3, r0]
    NVIC->IP[((uint32_t)(int32_t)IRQn)]               = (uint8_t)((priority << (8U - __NVIC_PRIO_BITS)) & (uint32_t)0xFFUL);
 8000b6e:	f880 2300 	strbge.w	r2, [r0, #768]	; 0x300
 8000b72:	bd30      	pop	{r4, r5, pc}
 8000b74:	e000ed00 	.word	0xe000ed00
 8000b78:	e000ed14 	.word	0xe000ed14

08000b7c <HAL_NVIC_EnableIRQ>:
  NVIC->ISER[(((uint32_t)(int32_t)IRQn) >> 5UL)] = (uint32_t)(1UL << (((uint32_t)(int32_t)IRQn) & 0x1FUL));
 8000b7c:	2301      	movs	r3, #1
 8000b7e:	0942      	lsrs	r2, r0, #5
 8000b80:	f000 001f 	and.w	r0, r0, #31
 8000b84:	fa03 f000 	lsl.w	r0, r3, r0
 8000b88:	4b01      	ldr	r3, [pc, #4]	; (8000b90 <HAL_NVIC_EnableIRQ+0x14>)
 8000b8a:	f843 0022 	str.w	r0, [r3, r2, lsl #2]
 8000b8e:	4770      	bx	lr
 8000b90:	e000e100 	.word	0xe000e100

08000b94 <HAL_RCC_GetPCLK2Freq>:
  * @retval PCLK2 frequency
  */
uint32_t HAL_RCC_GetPCLK2Freq(void)
{
  /* Get HCLK source and Compute PCLK2 frequency ---------------------------*/
  return (HAL_RCC_GetHCLKFreq()>> APBPrescTable[(RCC->CFGR & RCC_CFGR_PPRE2) >> RCC_CFGR_PPRE2_Pos]);
 8000b94:	4b04      	ldr	r3, [pc, #16]	; (8000ba8 <HAL_RCC_GetPCLK2Freq+0x14>)
 8000b96:	4a05      	ldr	r2, [pc, #20]	; (8000bac <HAL_RCC_GetPCLK2Freq+0x18>)
 8000b98:	685b      	ldr	r3, [r3, #4]
 8000b9a:	f3c3 23c2 	ubfx	r3, r3, #11, #3
 8000b9e:	5cd3      	ldrb	r3, [r2, r3]
 8000ba0:	4a03      	ldr	r2, [pc, #12]	; (8000bb0 <HAL_RCC_GetPCLK2Freq+0x1c>)
 8000ba2:	6810      	ldr	r0, [r2, #0]
} 
 8000ba4:	40d8      	lsrs	r0, r3
 8000ba6:	4770      	bx	lr
 8000ba8:	40021000 	.word	0x40021000
 8000bac:	08004096 	.word	0x08004096
 8000bb0:	20000010 	.word	0x20000010

08000bb4 <HAL_RCC_GetClockConfig>:
  /* Check the parameters */
  assert_param(RCC_ClkInitStruct != NULL);
  assert_param(pFLatency != NULL);

  /* Set all possible values for the Clock type parameter --------------------*/
  RCC_ClkInitStruct->ClockType = RCC_CLOCKTYPE_SYSCLK | RCC_CLOCKTYPE_HCLK | RCC_CLOCKTYPE_PCLK1 | RCC_CLOCKTYPE_PCLK2;
 8000bb4:	230f      	movs	r3, #15
 8000bb6:	6003      	str	r3, [r0, #0]
  
  /* Get the SYSCLK configuration --------------------------------------------*/ 
  RCC_ClkInitStruct->SYSCLKSource = (uint32_t)(RCC->CFGR & RCC_CFGR_SW);
 8000bb8:	4b0b      	ldr	r3, [pc, #44]	; (8000be8 <HAL_RCC_GetClockConfig+0x34>)
 8000bba:	685a      	ldr	r2, [r3, #4]
 8000bbc:	f002 0203 	and.w	r2, r2, #3
 8000bc0:	6042      	str	r2, [r0, #4]
  
  /* Get the HCLK configuration ----------------------------------------------*/ 
  RCC_ClkInitStruct->AHBCLKDivider = (uint32_t)(RCC->CFGR & RCC_CFGR_HPRE); 
 8000bc2:	685a      	ldr	r2, [r3, #4]
 8000bc4:	f002 02f0 	and.w	r2, r2, #240	; 0xf0
 8000bc8:	6082      	str	r2, [r0, #8]
  
  /* Get the APB1 configuration ----------------------------------------------*/ 
  RCC_ClkInitStruct->APB1CLKDivider = (uint32_t)(RCC->CFGR & RCC_CFGR_PPRE1);   
 8000bca:	685a      	ldr	r2, [r3, #4]
 8000bcc:	f402 62e0 	and.w	r2, r2, #1792	; 0x700
 8000bd0:	60c2      	str	r2, [r0, #12]
  
  /* Get the APB2 configuration ----------------------------------------------*/ 
  RCC_ClkInitStruct->APB2CLKDivider = (uint32_t)((RCC->CFGR & RCC_CFGR_PPRE2) >> 3);
 8000bd2:	685b      	ldr	r3, [r3, #4]
 8000bd4:	08db      	lsrs	r3, r3, #3
 8000bd6:	f403 63e0 	and.w	r3, r3, #1792	; 0x700
 8000bda:	6103      	str	r3, [r0, #16]
  
#if   defined(FLASH_ACR_LATENCY)
  /* Get the Flash Wait State (Latency) configuration ------------------------*/   
  *pFLatency = (uint32_t)(FLASH->ACR & FLASH_ACR_LATENCY); 
 8000bdc:	4b03      	ldr	r3, [pc, #12]	; (8000bec <HAL_RCC_GetClockConfig+0x38>)
 8000bde:	681b      	ldr	r3, [r3, #0]
 8000be0:	f003 0307 	and.w	r3, r3, #7
 8000be4:	600b      	str	r3, [r1, #0]
 8000be6:	4770      	bx	lr
 8000be8:	40021000 	.word	0x40021000
 8000bec:	40022000 	.word	0x40022000

08000bf0 <HAL_TIM_Base_MspInit>:
 8000bf0:	4770      	bx	lr

08000bf2 <HAL_TIM_Base_Start_IT>:
{
  /* Check the parameters */
  assert_param(IS_TIM_INSTANCE(htim->Instance));

   /* Enable the TIM Update interrupt */
   __HAL_TIM_ENABLE_IT(htim, TIM_IT_UPDATE);
 8000bf2:	6803      	ldr	r3, [r0, #0]
   /* Enable the Peripheral */
  __HAL_TIM_ENABLE(htim);

  /* Return function status */
  return HAL_OK;
}
 8000bf4:	2000      	movs	r0, #0
   __HAL_TIM_ENABLE_IT(htim, TIM_IT_UPDATE);
 8000bf6:	68da      	ldr	r2, [r3, #12]
 8000bf8:	f042 0201 	orr.w	r2, r2, #1
 8000bfc:	60da      	str	r2, [r3, #12]
  __HAL_TIM_ENABLE(htim);
 8000bfe:	681a      	ldr	r2, [r3, #0]
 8000c00:	f042 0201 	orr.w	r2, r2, #1
 8000c04:	601a      	str	r2, [r3, #0]
}
 8000c06:	4770      	bx	lr

08000c08 <HAL_TIM_OC_DelayElapsedCallback>:
 8000c08:	4770      	bx	lr

08000c0a <HAL_TIM_IC_CaptureCallback>:
 8000c0a:	4770      	bx	lr

08000c0c <HAL_TIM_PWM_PulseFinishedCallback>:
 8000c0c:	4770      	bx	lr

08000c0e <HAL_TIM_TriggerCallback>:
 8000c0e:	4770      	bx	lr

08000c10 <HAL_TIM_IRQHandler>:
  * @retval None
  */
void HAL_TIM_IRQHandler(TIM_HandleTypeDef *htim)
{
  /* Capture compare 1 event */
  if(__HAL_TIM_GET_FLAG(htim, TIM_FLAG_CC1) != RESET)
 8000c10:	6803      	ldr	r3, [r0, #0]
{
 8000c12:	b510      	push	{r4, lr}
  if(__HAL_TIM_GET_FLAG(htim, TIM_FLAG_CC1) != RESET)
 8000c14:	691a      	ldr	r2, [r3, #16]
{
 8000c16:	4604      	mov	r4, r0
  if(__HAL_TIM_GET_FLAG(htim, TIM_FLAG_CC1) != RESET)
 8000c18:	0791      	lsls	r1, r2, #30
 8000c1a:	d50e      	bpl.n	8000c3a <HAL_TIM_IRQHandler+0x2a>
  {
    if(__HAL_TIM_GET_IT_SOURCE(htim, TIM_IT_CC1) !=RESET)
 8000c1c:	68da      	ldr	r2, [r3, #12]
 8000c1e:	0792      	lsls	r2, r2, #30
 8000c20:	d50b      	bpl.n	8000c3a <HAL_TIM_IRQHandler+0x2a>
    {
      {
        __HAL_TIM_CLEAR_IT(htim, TIM_IT_CC1);
 8000c22:	f06f 0202 	mvn.w	r2, #2
 8000c26:	611a      	str	r2, [r3, #16]
        htim->Channel = HAL_TIM_ACTIVE_CHANNEL_1;
 8000c28:	2201      	movs	r2, #1

        /* Input capture event */
        if((htim->Instance->CCMR1 & TIM_CCMR1_CC1S) != 0x00U)
 8000c2a:	699b      	ldr	r3, [r3, #24]
        htim->Channel = HAL_TIM_ACTIVE_CHANNEL_1;
 8000c2c:	7702      	strb	r2, [r0, #28]
        if((htim->Instance->CCMR1 & TIM_CCMR1_CC1S) != 0x00U)
 8000c2e:	079b      	lsls	r3, r3, #30
 8000c30:	d077      	beq.n	8000d22 <HAL_TIM_IRQHandler+0x112>
        {
          HAL_TIM_IC_CaptureCallback(htim);
 8000c32:	f7ff ffea 	bl	8000c0a <HAL_TIM_IC_CaptureCallback>
        else
        {
          HAL_TIM_OC_DelayElapsedCallback(htim);
          HAL_TIM_PWM_PulseFinishedCallback(htim);
        }
        htim->Channel = HAL_TIM_ACTIVE_CHANNEL_CLEARED;
 8000c36:	2300      	movs	r3, #0
 8000c38:	7723      	strb	r3, [r4, #28]
      }
    }
  }
  /* Capture compare 2 event */
  if(__HAL_TIM_GET_FLAG(htim, TIM_FLAG_CC2) != RESET)
 8000c3a:	6823      	ldr	r3, [r4, #0]
 8000c3c:	691a      	ldr	r2, [r3, #16]
 8000c3e:	0750      	lsls	r0, r2, #29
 8000c40:	d510      	bpl.n	8000c64 <HAL_TIM_IRQHandler+0x54>
  {
    if(__HAL_TIM_GET_IT_SOURCE(htim, TIM_IT_CC2) !=RESET)
 8000c42:	68da      	ldr	r2, [r3, #12]
 8000c44:	0751      	lsls	r1, r2, #29
 8000c46:	d50d      	bpl.n	8000c64 <HAL_TIM_IRQHandler+0x54>
    {
      __HAL_TIM_CLEAR_IT(htim, TIM_IT_CC2);
 8000c48:	f06f 0204 	mvn.w	r2, #4
 8000c4c:	611a      	str	r2, [r3, #16]
      htim->Channel = HAL_TIM_ACTIVE_CHANNEL_2;
 8000c4e:	2202      	movs	r2, #2
      /* Input capture event */
      if((htim->Instance->CCMR1 & TIM_CCMR1_CC2S) != 0x00U)
 8000c50:	699b      	ldr	r3, [r3, #24]
      htim->Channel = HAL_TIM_ACTIVE_CHANNEL_2;
 8000c52:	7722      	strb	r2, [r4, #28]
      if((htim->Instance->CCMR1 & TIM_CCMR1_CC2S) != 0x00U)
 8000c54:	f413 7f40 	tst.w	r3, #768	; 0x300
      {
        HAL_TIM_IC_CaptureCallback(htim);
 8000c58:	4620      	mov	r0, r4
      if((htim->Instance->CCMR1 & TIM_CCMR1_CC2S) != 0x00U)
 8000c5a:	d068      	beq.n	8000d2e <HAL_TIM_IRQHandler+0x11e>
        HAL_TIM_IC_CaptureCallback(htim);
 8000c5c:	f7ff ffd5 	bl	8000c0a <HAL_TIM_IC_CaptureCallback>
      else
      {
        HAL_TIM_OC_DelayElapsedCallback(htim);
        HAL_TIM_PWM_PulseFinishedCallback(htim);
      }
      htim->Channel = HAL_TIM_ACTIVE_CHANNEL_CLEARED;
 8000c60:	2300      	movs	r3, #0
 8000c62:	7723      	strb	r3, [r4, #28]
    }
  }
  /* Capture compare 3 event */
  if(__HAL_TIM_GET_FLAG(htim, TIM_FLAG_CC3) != RESET)
 8000c64:	6823      	ldr	r3, [r4, #0]
 8000c66:	691a      	ldr	r2, [r3, #16]
 8000c68:	0712      	lsls	r2, r2, #28
 8000c6a:	d50f      	bpl.n	8000c8c <HAL_TIM_IRQHandler+0x7c>
  {
    if(__HAL_TIM_GET_IT_SOURCE(htim, TIM_IT_CC3) !=RESET)
 8000c6c:	68da      	ldr	r2, [r3, #12]
 8000c6e:	0710      	lsls	r0, r2, #28
 8000c70:	d50c      	bpl.n	8000c8c <HAL_TIM_IRQHandler+0x7c>
    {
      __HAL_TIM_CLEAR_IT(htim, TIM_IT_CC3);
 8000c72:	f06f 0208 	mvn.w	r2, #8
 8000c76:	611a      	str	r2, [r3, #16]
      htim->Channel = HAL_TIM_ACTIVE_CHANNEL_3;
 8000c78:	2204      	movs	r2, #4
      /* Input capture event */
      if((htim->Instance->CCMR2 & TIM_CCMR2_CC3S) != 0x00U)
 8000c7a:	69db      	ldr	r3, [r3, #28]
      htim->Channel = HAL_TIM_ACTIVE_CHANNEL_3;
 8000c7c:	7722      	strb	r2, [r4, #28]
      if((htim->Instance->CCMR2 & TIM_CCMR2_CC3S) != 0x00U)
 8000c7e:	0799      	lsls	r1, r3, #30
      {
        HAL_TIM_IC_CaptureCallback(htim);
 8000c80:	4620      	mov	r0, r4
      if((htim->Instance->CCMR2 & TIM_CCMR2_CC3S) != 0x00U)
 8000c82:	d05a      	beq.n	8000d3a <HAL_TIM_IRQHandler+0x12a>
        HAL_TIM_IC_CaptureCallback(htim);
 8000c84:	f7ff ffc1 	bl	8000c0a <HAL_TIM_IC_CaptureCallback>
      else
      {
        HAL_TIM_OC_DelayElapsedCallback(htim);
        HAL_TIM_PWM_PulseFinishedCallback(htim);
      }
      htim->Channel = HAL_TIM_ACTIVE_CHANNEL_CLEARED;
 8000c88:	2300      	movs	r3, #0
 8000c8a:	7723      	strb	r3, [r4, #28]
    }
  }
  /* Capture compare 4 event */
  if(__HAL_TIM_GET_FLAG(htim, TIM_FLAG_CC4) != RESET)
 8000c8c:	6823      	ldr	r3, [r4, #0]
 8000c8e:	691a      	ldr	r2, [r3, #16]
 8000c90:	06d2      	lsls	r2, r2, #27
 8000c92:	d510      	bpl.n	8000cb6 <HAL_TIM_IRQHandler+0xa6>
  {
    if(__HAL_TIM_GET_IT_SOURCE(htim, TIM_IT_CC4) !=RESET)
 8000c94:	68da      	ldr	r2, [r3, #12]
 8000c96:	06d0      	lsls	r0, r2, #27
 8000c98:	d50d      	bpl.n	8000cb6 <HAL_TIM_IRQHandler+0xa6>
    {
      __HAL_TIM_CLEAR_IT(htim, TIM_IT_CC4);
 8000c9a:	f06f 0210 	mvn.w	r2, #16
 8000c9e:	611a      	str	r2, [r3, #16]
      htim->Channel = HAL_TIM_ACTIVE_CHANNEL_4;
 8000ca0:	2208      	movs	r2, #8
      /* Input capture event */
      if((htim->Instance->CCMR2 & TIM_CCMR2_CC4S) != 0x00U)
 8000ca2:	69db      	ldr	r3, [r3, #28]
      htim->Channel = HAL_TIM_ACTIVE_CHANNEL_4;
 8000ca4:	7722      	strb	r2, [r4, #28]
      if((htim->Instance->CCMR2 & TIM_CCMR2_CC4S) != 0x00U)
 8000ca6:	f413 7f40 	tst.w	r3, #768	; 0x300
      {
        HAL_TIM_IC_CaptureCallback(htim);
 8000caa:	4620      	mov	r0, r4
      if((htim->Instance->CCMR2 & TIM_CCMR2_CC4S) != 0x00U)
 8000cac:	d04b      	beq.n	8000d46 <HAL_TIM_IRQHandler+0x136>
        HAL_TIM_IC_CaptureCallback(htim);
 8000cae:	f7ff ffac 	bl	8000c0a <HAL_TIM_IC_CaptureCallback>
      else
      {
        HAL_TIM_OC_DelayElapsedCallback(htim);
        HAL_TIM_PWM_PulseFinishedCallback(htim);
      }
      htim->Channel = HAL_TIM_ACTIVE_CHANNEL_CLEARED;
 8000cb2:	2300      	movs	r3, #0
 8000cb4:	7723      	strb	r3, [r4, #28]
    }
  }
  /* TIM Update event */
  if(__HAL_TIM_GET_FLAG(htim, TIM_FLAG_UPDATE) != RESET)
 8000cb6:	6823      	ldr	r3, [r4, #0]
 8000cb8:	691a      	ldr	r2, [r3, #16]
 8000cba:	07d1      	lsls	r1, r2, #31
 8000cbc:	d508      	bpl.n	8000cd0 <HAL_TIM_IRQHandler+0xc0>
  {
    if(__HAL_TIM_GET_IT_SOURCE(htim, TIM_IT_UPDATE) !=RESET)
 8000cbe:	68da      	ldr	r2, [r3, #12]
 8000cc0:	07d2      	lsls	r2, r2, #31
 8000cc2:	d505      	bpl.n	8000cd0 <HAL_TIM_IRQHandler+0xc0>
    {
      __HAL_TIM_CLEAR_IT(htim, TIM_IT_UPDATE);
 8000cc4:	f06f 0201 	mvn.w	r2, #1
      HAL_TIM_PeriodElapsedCallback(htim);
 8000cc8:	4620      	mov	r0, r4
      __HAL_TIM_CLEAR_IT(htim, TIM_IT_UPDATE);
 8000cca:	611a      	str	r2, [r3, #16]
      HAL_TIM_PeriodElapsedCallback(htim);
 8000ccc:	f002 fa3a 	bl	8003144 <HAL_TIM_PeriodElapsedCallback>
    }
  }
  /* TIM Break input event */
  if(__HAL_TIM_GET_FLAG(htim, TIM_FLAG_BREAK) != RESET)
 8000cd0:	6823      	ldr	r3, [r4, #0]
 8000cd2:	691a      	ldr	r2, [r3, #16]
 8000cd4:	0610      	lsls	r0, r2, #24
 8000cd6:	d508      	bpl.n	8000cea <HAL_TIM_IRQHandler+0xda>
  {
    if(__HAL_TIM_GET_IT_SOURCE(htim, TIM_IT_BREAK) !=RESET)
 8000cd8:	68da      	ldr	r2, [r3, #12]
 8000cda:	0611      	lsls	r1, r2, #24
 8000cdc:	d505      	bpl.n	8000cea <HAL_TIM_IRQHandler+0xda>
    {
      __HAL_TIM_CLEAR_IT(htim, TIM_IT_BREAK);
 8000cde:	f06f 0280 	mvn.w	r2, #128	; 0x80
      HAL_TIMEx_BreakCallback(htim);
 8000ce2:	4620      	mov	r0, r4
      __HAL_TIM_CLEAR_IT(htim, TIM_IT_BREAK);
 8000ce4:	611a      	str	r2, [r3, #16]
      HAL_TIMEx_BreakCallback(htim);
 8000ce6:	f000 f888 	bl	8000dfa <HAL_TIMEx_BreakCallback>
    }
  }
  /* TIM Trigger detection event */
  if(__HAL_TIM_GET_FLAG(htim, TIM_FLAG_TRIGGER) != RESET)
 8000cea:	6823      	ldr	r3, [r4, #0]
 8000cec:	691a      	ldr	r2, [r3, #16]
 8000cee:	0652      	lsls	r2, r2, #25
 8000cf0:	d508      	bpl.n	8000d04 <HAL_TIM_IRQHandler+0xf4>
  {
    if(__HAL_TIM_GET_IT_SOURCE(htim, TIM_IT_TRIGGER) !=RESET)
 8000cf2:	68da      	ldr	r2, [r3, #12]
 8000cf4:	0650      	lsls	r0, r2, #25
 8000cf6:	d505      	bpl.n	8000d04 <HAL_TIM_IRQHandler+0xf4>
    {
      __HAL_TIM_CLEAR_IT(htim, TIM_IT_TRIGGER);
 8000cf8:	f06f 0240 	mvn.w	r2, #64	; 0x40
      HAL_TIM_TriggerCallback(htim);
 8000cfc:	4620      	mov	r0, r4
      __HAL_TIM_CLEAR_IT(htim, TIM_IT_TRIGGER);
 8000cfe:	611a      	str	r2, [r3, #16]
      HAL_TIM_TriggerCallback(htim);
 8000d00:	f7ff ff85 	bl	8000c0e <HAL_TIM_TriggerCallback>
    }
  }
  /* TIM commutation event */
  if(__HAL_TIM_GET_FLAG(htim, TIM_FLAG_COM) != RESET)
 8000d04:	6823      	ldr	r3, [r4, #0]
 8000d06:	691a      	ldr	r2, [r3, #16]
 8000d08:	0691      	lsls	r1, r2, #26
 8000d0a:	d522      	bpl.n	8000d52 <HAL_TIM_IRQHandler+0x142>
  {
    if(__HAL_TIM_GET_IT_SOURCE(htim, TIM_IT_COM) !=RESET)
 8000d0c:	68da      	ldr	r2, [r3, #12]
 8000d0e:	0692      	lsls	r2, r2, #26
 8000d10:	d51f      	bpl.n	8000d52 <HAL_TIM_IRQHandler+0x142>
    {
      __HAL_TIM_CLEAR_IT(htim, TIM_FLAG_COM);
 8000d12:	f06f 0220 	mvn.w	r2, #32
      HAL_TIMEx_CommutationCallback(htim);
 8000d16:	4620      	mov	r0, r4
    }
  }
}
 8000d18:	e8bd 4010 	ldmia.w	sp!, {r4, lr}
      __HAL_TIM_CLEAR_IT(htim, TIM_FLAG_COM);
 8000d1c:	611a      	str	r2, [r3, #16]
      HAL_TIMEx_CommutationCallback(htim);
 8000d1e:	f000 b86b 	b.w	8000df8 <HAL_TIMEx_CommutationCallback>
          HAL_TIM_OC_DelayElapsedCallback(htim);
 8000d22:	f7ff ff71 	bl	8000c08 <HAL_TIM_OC_DelayElapsedCallback>
          HAL_TIM_PWM_PulseFinishedCallback(htim);
 8000d26:	4620      	mov	r0, r4
 8000d28:	f7ff ff70 	bl	8000c0c <HAL_TIM_PWM_PulseFinishedCallback>
 8000d2c:	e783      	b.n	8000c36 <HAL_TIM_IRQHandler+0x26>
        HAL_TIM_OC_DelayElapsedCallback(htim);
 8000d2e:	f7ff ff6b 	bl	8000c08 <HAL_TIM_OC_DelayElapsedCallback>
        HAL_TIM_PWM_PulseFinishedCallback(htim);
 8000d32:	4620      	mov	r0, r4
 8000d34:	f7ff ff6a 	bl	8000c0c <HAL_TIM_PWM_PulseFinishedCallback>
 8000d38:	e792      	b.n	8000c60 <HAL_TIM_IRQHandler+0x50>
        HAL_TIM_OC_DelayElapsedCallback(htim);
 8000d3a:	f7ff ff65 	bl	8000c08 <HAL_TIM_OC_DelayElapsedCallback>
        HAL_TIM_PWM_PulseFinishedCallback(htim);
 8000d3e:	4620      	mov	r0, r4
 8000d40:	f7ff ff64 	bl	8000c0c <HAL_TIM_PWM_PulseFinishedCallback>
 8000d44:	e7a0      	b.n	8000c88 <HAL_TIM_IRQHandler+0x78>
        HAL_TIM_OC_DelayElapsedCallback(htim);
 8000d46:	f7ff ff5f 	bl	8000c08 <HAL_TIM_OC_DelayElapsedCallback>
        HAL_TIM_PWM_PulseFinishedCallback(htim);
 8000d4a:	4620      	mov	r0, r4
 8000d4c:	f7ff ff5e 	bl	8000c0c <HAL_TIM_PWM_PulseFinishedCallback>
 8000d50:	e7af      	b.n	8000cb2 <HAL_TIM_IRQHandler+0xa2>
 8000d52:	bd10      	pop	{r4, pc}

08000d54 <TIM_Base_SetConfig>:
{
  uint32_t tmpcr1 = 0U;
  tmpcr1 = TIMx->CR1;

  /* Set TIM Time Base Unit parameters ---------------------------------------*/
  if (IS_TIM_COUNTER_MODE_SELECT_INSTANCE(TIMx))
 8000d54:	4a1a      	ldr	r2, [pc, #104]	; (8000dc0 <TIM_Base_SetConfig+0x6c>)
  tmpcr1 = TIMx->CR1;
 8000d56:	6803      	ldr	r3, [r0, #0]
  if (IS_TIM_COUNTER_MODE_SELECT_INSTANCE(TIMx))
 8000d58:	4290      	cmp	r0, r2
 8000d5a:	d00a      	beq.n	8000d72 <TIM_Base_SetConfig+0x1e>
 8000d5c:	f1b0 4f80 	cmp.w	r0, #1073741824	; 0x40000000
 8000d60:	d007      	beq.n	8000d72 <TIM_Base_SetConfig+0x1e>
 8000d62:	f5a2 3294 	sub.w	r2, r2, #75776	; 0x12800
 8000d66:	4290      	cmp	r0, r2
 8000d68:	d003      	beq.n	8000d72 <TIM_Base_SetConfig+0x1e>
 8000d6a:	f502 6280 	add.w	r2, r2, #1024	; 0x400
 8000d6e:	4290      	cmp	r0, r2
 8000d70:	d115      	bne.n	8000d9e <TIM_Base_SetConfig+0x4a>
  {
    /* Select the Counter Mode */
    tmpcr1 &= ~(TIM_CR1_DIR | TIM_CR1_CMS);
    tmpcr1 |= Structure->CounterMode;
 8000d72:	684a      	ldr	r2, [r1, #4]
    tmpcr1 &= ~(TIM_CR1_DIR | TIM_CR1_CMS);
 8000d74:	f023 0370 	bic.w	r3, r3, #112	; 0x70
    tmpcr1 |= Structure->CounterMode;
 8000d78:	4313      	orrs	r3, r2
  }

  if(IS_TIM_CLOCK_DIVISION_INSTANCE(TIMx))
 8000d7a:	4a11      	ldr	r2, [pc, #68]	; (8000dc0 <TIM_Base_SetConfig+0x6c>)
 8000d7c:	4290      	cmp	r0, r2
 8000d7e:	d00a      	beq.n	8000d96 <TIM_Base_SetConfig+0x42>
 8000d80:	f1b0 4f80 	cmp.w	r0, #1073741824	; 0x40000000
 8000d84:	d007      	beq.n	8000d96 <TIM_Base_SetConfig+0x42>
 8000d86:	f5a2 3294 	sub.w	r2, r2, #75776	; 0x12800
 8000d8a:	4290      	cmp	r0, r2
 8000d8c:	d003      	beq.n	8000d96 <TIM_Base_SetConfig+0x42>
 8000d8e:	f502 6280 	add.w	r2, r2, #1024	; 0x400
 8000d92:	4290      	cmp	r0, r2
 8000d94:	d103      	bne.n	8000d9e <TIM_Base_SetConfig+0x4a>
  {
    /* Set the clock division */
    tmpcr1 &= ~TIM_CR1_CKD;
    tmpcr1 |= (uint32_t)Structure->ClockDivision;
 8000d96:	68ca      	ldr	r2, [r1, #12]
    tmpcr1 &= ~TIM_CR1_CKD;
 8000d98:	f423 7340 	bic.w	r3, r3, #768	; 0x300
    tmpcr1 |= (uint32_t)Structure->ClockDivision;
 8000d9c:	4313      	orrs	r3, r2
  }

  /* Set the auto-reload preload */
  tmpcr1 &= ~TIM_CR1_ARPE;
  tmpcr1 |= (uint32_t)Structure->AutoReloadPreload;
 8000d9e:	694a      	ldr	r2, [r1, #20]
  tmpcr1 &= ~TIM_CR1_ARPE;
 8000da0:	f023 0380 	bic.w	r3, r3, #128	; 0x80
  tmpcr1 |= (uint32_t)Structure->AutoReloadPreload;
 8000da4:	4313      	orrs	r3, r2

  TIMx->CR1 = tmpcr1;
 8000da6:	6003      	str	r3, [r0, #0]

  /* Set the Autoreload value */
  TIMx->ARR = (uint32_t)Structure->Period ;
 8000da8:	688b      	ldr	r3, [r1, #8]
 8000daa:	62c3      	str	r3, [r0, #44]	; 0x2c

  /* Set the Prescaler value */
  TIMx->PSC = (uint32_t)Structure->Prescaler;
 8000dac:	680b      	ldr	r3, [r1, #0]
 8000dae:	6283      	str	r3, [r0, #40]	; 0x28

  if (IS_TIM_REPETITION_COUNTER_INSTANCE(TIMx))
 8000db0:	4b03      	ldr	r3, [pc, #12]	; (8000dc0 <TIM_Base_SetConfig+0x6c>)
 8000db2:	4298      	cmp	r0, r3
  {
    /* Set the Repetition Counter value */
    TIMx->RCR = Structure->RepetitionCounter;
 8000db4:	bf04      	itt	eq
 8000db6:	690b      	ldreq	r3, [r1, #16]
 8000db8:	6303      	streq	r3, [r0, #48]	; 0x30
  }

  /* Generate an update event to reload the Prescaler 
     and the repetition counter(only for TIM1 and TIM8) value immediatly */
  TIMx->EGR = TIM_EGR_UG;
 8000dba:	2301      	movs	r3, #1
 8000dbc:	6143      	str	r3, [r0, #20]
 8000dbe:	4770      	bx	lr
 8000dc0:	40012c00 	.word	0x40012c00

08000dc4 <HAL_TIM_Base_Init>:
{
 8000dc4:	b510      	push	{r4, lr}
  if(htim == NULL)
 8000dc6:	4604      	mov	r4, r0
 8000dc8:	b1a0      	cbz	r0, 8000df4 <HAL_TIM_Base_Init+0x30>
  if(htim->State == HAL_TIM_STATE_RESET)
 8000dca:	f890 303d 	ldrb.w	r3, [r0, #61]	; 0x3d
 8000dce:	f003 02ff 	and.w	r2, r3, #255	; 0xff
 8000dd2:	b91b      	cbnz	r3, 8000ddc <HAL_TIM_Base_Init+0x18>
    htim->Lock = HAL_UNLOCKED;
 8000dd4:	f880 203c 	strb.w	r2, [r0, #60]	; 0x3c
    HAL_TIM_Base_MspInit(htim);
 8000dd8:	f7ff ff0a 	bl	8000bf0 <HAL_TIM_Base_MspInit>
  htim->State= HAL_TIM_STATE_BUSY;
 8000ddc:	2302      	movs	r3, #2
  TIM_Base_SetConfig(htim->Instance, &htim->Init);
 8000dde:	6820      	ldr	r0, [r4, #0]
  htim->State= HAL_TIM_STATE_BUSY;
 8000de0:	f884 303d 	strb.w	r3, [r4, #61]	; 0x3d
  TIM_Base_SetConfig(htim->Instance, &htim->Init);
 8000de4:	1d21      	adds	r1, r4, #4
 8000de6:	f7ff ffb5 	bl	8000d54 <TIM_Base_SetConfig>
  htim->State= HAL_TIM_STATE_READY;
 8000dea:	2301      	movs	r3, #1
  return HAL_OK;
 8000dec:	2000      	movs	r0, #0
  htim->State= HAL_TIM_STATE_READY;
 8000dee:	f884 303d 	strb.w	r3, [r4, #61]	; 0x3d
  return HAL_OK;
 8000df2:	bd10      	pop	{r4, pc}
    return HAL_ERROR;
 8000df4:	2001      	movs	r0, #1
}
 8000df6:	bd10      	pop	{r4, pc}

08000df8 <HAL_TIMEx_CommutationCallback>:
 8000df8:	4770      	bx	lr

08000dfa <HAL_TIMEx_BreakCallback>:
  * @brief  Hall Break detection callback in non blocking mode
  * @param  htim : TIM handle
  * @retval None
  */
__weak void HAL_TIMEx_BreakCallback(TIM_HandleTypeDef *htim)
{
 8000dfa:	4770      	bx	lr

08000dfc <LL_ADC_CommonInit>:
  * @param  ADCx ADC instance
  * @retval 0: ADC is disabled, 1: ADC is enabled.
  */
__STATIC_INLINE uint32_t LL_ADC_IsEnabled(ADC_TypeDef *ADCx)
{
  return (READ_BIT(ADCx->CR2, ADC_CR2_ADON) == (ADC_CR2_ADON));
 8000dfc:	4b09      	ldr	r3, [pc, #36]	; (8000e24 <LL_ADC_CommonInit+0x28>)
 8000dfe:	689a      	ldr	r2, [r3, #8]
 8000e00:	f503 6380 	add.w	r3, r3, #1024	; 0x400
 8000e04:	689b      	ldr	r3, [r3, #8]
  /* Note: Hardware constraint (refer to description of functions             */
  /*       "LL_ADC_SetCommonXXX()" and "LL_ADC_SetMultiXXX()"):               */
  /*       On this STM32 serie, setting of these features is conditioned to   */
  /*       ADC state:                                                         */
  /*       All ADC instances of the ADC common group must be disabled.        */
  if(__LL_ADC_IS_ENABLED_ALL_COMMON_INSTANCE(ADCxy_COMMON) == 0U)
 8000e06:	4313      	orrs	r3, r2
 8000e08:	07db      	lsls	r3, r3, #31
 8000e0a:	d408      	bmi.n	8000e1e <LL_ADC_CommonInit+0x22>
    /*    - Set ADC multimode DMA transfer                                    */
    /*    - Set ADC multimode: delay between 2 sampling phases                */
#if defined(ADC_MULTIMODE_SUPPORT)
    if(ADC_CommonInitStruct->Multimode != LL_ADC_MULTI_INDEPENDENT)
    {
      MODIFY_REG(ADCxy_COMMON->CR1,
 8000e0c:	6843      	ldr	r3, [r0, #4]
    if(ADC_CommonInitStruct->Multimode != LL_ADC_MULTI_INDEPENDENT)
 8000e0e:	680a      	ldr	r2, [r1, #0]
      MODIFY_REG(ADCxy_COMMON->CR1,
 8000e10:	f423 2370 	bic.w	r3, r3, #983040	; 0xf0000
    if(ADC_CommonInitStruct->Multimode != LL_ADC_MULTI_INDEPENDENT)
 8000e14:	b102      	cbz	r2, 8000e18 <LL_ADC_CommonInit+0x1c>
      MODIFY_REG(ADCxy_COMMON->CR1,
 8000e16:	4313      	orrs	r3, r2
                 ADC_CommonInitStruct->Multimode
                );
    }
    else
    {
      MODIFY_REG(ADCxy_COMMON->CR1,
 8000e18:	6043      	str	r3, [r0, #4]
  ErrorStatus status = SUCCESS;
 8000e1a:	2001      	movs	r0, #1
 8000e1c:	4770      	bx	lr
  }
  else
  {
    /* Initialization error: One or several ADC instances belonging to        */
    /* the same ADC common instance are not disabled.                         */
    status = ERROR;
 8000e1e:	2000      	movs	r0, #0
  }
  
  return status;
}
 8000e20:	4770      	bx	lr
 8000e22:	bf00      	nop
 8000e24:	40012400 	.word	0x40012400

08000e28 <LL_ADC_Init>:
 8000e28:	6883      	ldr	r3, [r0, #8]
  assert_param(IS_LL_ADC_DATA_ALIGN(ADC_InitStruct->DataAlignment));
  assert_param(IS_LL_ADC_SCAN_SELECTION(ADC_InitStruct->SequencersScanMode));
  
  /* Note: Hardware constraint (refer to description of this function):       */
  /*       ADC instance must be disabled.                                     */
  if(LL_ADC_IsEnabled(ADCx) == 0U)
 8000e2a:	07db      	lsls	r3, r3, #31
 8000e2c:	d40d      	bmi.n	8000e4a <LL_ADC_Init+0x22>
  {
    /* Configuration of ADC hierarchical scope:                               */
    /*  - ADC instance                                                        */
    /*    - Set ADC conversion data alignment                                 */
    MODIFY_REG(ADCx->CR1,
 8000e2e:	6843      	ldr	r3, [r0, #4]
 8000e30:	684a      	ldr	r2, [r1, #4]
 8000e32:	f423 7380 	bic.w	r3, r3, #256	; 0x100
 8000e36:	4313      	orrs	r3, r2
 8000e38:	6043      	str	r3, [r0, #4]
                 ADC_CR1_SCAN
              ,
                 ADC_InitStruct->SequencersScanMode
              );
    
    MODIFY_REG(ADCx->CR2,
 8000e3a:	6883      	ldr	r3, [r0, #8]
 8000e3c:	680a      	ldr	r2, [r1, #0]
 8000e3e:	f423 6300 	bic.w	r3, r3, #2048	; 0x800
 8000e42:	4313      	orrs	r3, r2
 8000e44:	6083      	str	r3, [r0, #8]
  ErrorStatus status = SUCCESS;
 8000e46:	2001      	movs	r0, #1
 8000e48:	4770      	bx	lr

  }
  else
  {
    /* Initialization error: ADC instance is not disabled. */
    status = ERROR;
 8000e4a:	2000      	movs	r0, #0
  }
  return status;
}
 8000e4c:	4770      	bx	lr

08000e4e <LL_ADC_REG_Init>:
 8000e4e:	6883      	ldr	r3, [r0, #8]
  * @retval An ErrorStatus enumeration value:
  *          - SUCCESS: ADC registers are initialized
  *          - ERROR: ADC registers are not initialized
  */
ErrorStatus LL_ADC_REG_Init(ADC_TypeDef *ADCx, LL_ADC_REG_InitTypeDef *ADC_REG_InitStruct)
{
 8000e50:	b510      	push	{r4, lr}
  assert_param(IS_LL_ADC_REG_CONTINUOUS_MODE(ADC_REG_InitStruct->ContinuousMode));
  assert_param(IS_LL_ADC_REG_DMA_TRANSFER(ADC_REG_InitStruct->DMATransfer));
  
  /* Note: Hardware constraint (refer to description of this function):       */
  /*       ADC instance must be disabled.                                     */
  if(LL_ADC_IsEnabled(ADCx) == 0U)
 8000e52:	07db      	lsls	r3, r3, #31
 8000e54:	d41b      	bmi.n	8000e8e <LL_ADC_REG_Init+0x40>
    /* Note: On this STM32 serie, ADC trigger edge is set when starting       */
    /*       ADC conversion.                                                  */
    /*       Refer to function @ref LL_ADC_REG_StartConversionExtTrig().      */
    if(ADC_REG_InitStruct->SequencerLength != LL_ADC_REG_SEQ_SCAN_DISABLE)
    {
      MODIFY_REG(ADCx->CR1,
 8000e56:	6843      	ldr	r3, [r0, #4]
  if(ADC_REG_InitStruct->SequencerLength != LL_ADC_REG_SEQ_SCAN_DISABLE)
 8000e58:	684a      	ldr	r2, [r1, #4]
      MODIFY_REG(ADCx->CR1,
 8000e5a:	f423 4368 	bic.w	r3, r3, #59392	; 0xe800
    if(ADC_REG_InitStruct->SequencerLength != LL_ADC_REG_SEQ_SCAN_DISABLE)
 8000e5e:	b112      	cbz	r2, 8000e66 <LL_ADC_REG_Init+0x18>
      MODIFY_REG(ADCx->CR1,
 8000e60:	688c      	ldr	r4, [r1, #8]
 8000e62:	4313      	orrs	r3, r2
 8000e64:	4323      	orrs	r3, r4
                 | ADC_REG_InitStruct->SequencerDiscont
                );
    }
    else
    {
      MODIFY_REG(ADCx->CR1,
 8000e66:	6043      	str	r3, [r0, #4]
                   ADC_REG_InitStruct->SequencerLength
                 | LL_ADC_REG_SEQ_DISCONT_DISABLE
                );
    }
    
    MODIFY_REG(ADCx->CR2,
 8000e68:	6883      	ldr	r3, [r0, #8]
 8000e6a:	680c      	ldr	r4, [r1, #0]
 8000e6c:	f423 2360 	bic.w	r3, r3, #917504	; 0xe0000
 8000e70:	f423 7381 	bic.w	r3, r3, #258	; 0x102
 8000e74:	4323      	orrs	r3, r4
 8000e76:	68cc      	ldr	r4, [r1, #12]
 8000e78:	6909      	ldr	r1, [r1, #16]
 8000e7a:	4323      	orrs	r3, r4
 8000e7c:	430b      	orrs	r3, r1
 8000e7e:	6083      	str	r3, [r0, #8]
  MODIFY_REG(ADCx->SQR1, ADC_SQR1_L, SequencerNbRanks);
 8000e80:	6ac3      	ldr	r3, [r0, #44]	; 0x2c
 8000e82:	f423 0370 	bic.w	r3, r3, #15728640	; 0xf00000
 8000e86:	4313      	orrs	r3, r2
 8000e88:	62c3      	str	r3, [r0, #44]	; 0x2c
  ErrorStatus status = SUCCESS;
 8000e8a:	2001      	movs	r0, #1
 8000e8c:	bd10      	pop	{r4, pc}
    LL_ADC_REG_SetSequencerLength(ADCx, ADC_REG_InitStruct->SequencerLength);
  }
  else
  {
    /* Initialization error: ADC instance is not disabled. */
    status = ERROR;
 8000e8e:	2000      	movs	r0, #0
  }
  return status;
}
 8000e90:	bd10      	pop	{r4, pc}
	...

08000e94 <LL_EXTI_Init>:
  assert_param(IS_LL_EXTI_LINE_0_31(EXTI_InitStruct->Line_0_31));
  assert_param(IS_FUNCTIONAL_STATE(EXTI_InitStruct->LineCommand));
  assert_param(IS_LL_EXTI_MODE(EXTI_InitStruct->Mode));

  /* ENABLE LineCommand */
  if (EXTI_InitStruct->LineCommand != DISABLE)
 8000e94:	7901      	ldrb	r1, [r0, #4]
{
 8000e96:	b510      	push	{r4, lr}
 8000e98:	4602      	mov	r2, r0
 8000e9a:	6803      	ldr	r3, [r0, #0]
  if (EXTI_InitStruct->LineCommand != DISABLE)
 8000e9c:	2900      	cmp	r1, #0
 8000e9e:	d042      	beq.n	8000f26 <LL_EXTI_Init+0x92>
  {
    assert_param(IS_LL_EXTI_TRIGGER(EXTI_InitStruct->Trigger));

    /* Configure EXTI Lines in range from 0 to 31 */
    if (EXTI_InitStruct->Line_0_31 != LL_EXTI_LINE_NONE)
 8000ea0:	2b00      	cmp	r3, #0
 8000ea2:	d048      	beq.n	8000f36 <LL_EXTI_Init+0xa2>
    {
      switch (EXTI_InitStruct->Mode)
 8000ea4:	7940      	ldrb	r0, [r0, #5]
 8000ea6:	2801      	cmp	r0, #1
 8000ea8:	d00e      	beq.n	8000ec8 <LL_EXTI_Init+0x34>
 8000eaa:	d303      	bcc.n	8000eb4 <LL_EXTI_Init+0x20>
 8000eac:	2802      	cmp	r0, #2
 8000eae:	d025      	beq.n	8000efc <LL_EXTI_Init+0x68>
          /* Directly Enable IT & Event on provided Lines */
          LL_EXTI_EnableIT_0_31(EXTI_InitStruct->Line_0_31);
          LL_EXTI_EnableEvent_0_31(EXTI_InitStruct->Line_0_31);
          break;
        default:
          status = ERROR;
 8000eb0:	2000      	movs	r0, #0
 8000eb2:	e011      	b.n	8000ed8 <LL_EXTI_Init+0x44>
  * @note   Please check each device line mapping for EXTI Line availability
  * @retval None
  */
__STATIC_INLINE void LL_EXTI_DisableEvent_0_31(uint32_t ExtiLine)
{
  CLEAR_BIT(EXTI->EMR, ExtiLine);
 8000eb4:	4922      	ldr	r1, [pc, #136]	; (8000f40 <LL_EXTI_Init+0xac>)
 8000eb6:	6848      	ldr	r0, [r1, #4]
 8000eb8:	ea20 0003 	bic.w	r0, r0, r3
 8000ebc:	6048      	str	r0, [r1, #4]
  SET_BIT(EXTI->IMR, ExtiLine);
 8000ebe:	6808      	ldr	r0, [r1, #0]
 8000ec0:	4318      	orrs	r0, r3
 8000ec2:	6008      	str	r0, [r1, #0]
  ErrorStatus status = SUCCESS;
 8000ec4:	2001      	movs	r0, #1
 8000ec6:	e007      	b.n	8000ed8 <LL_EXTI_Init+0x44>
  CLEAR_BIT(EXTI->IMR, ExtiLine);
 8000ec8:	491d      	ldr	r1, [pc, #116]	; (8000f40 <LL_EXTI_Init+0xac>)
 8000eca:	680c      	ldr	r4, [r1, #0]
 8000ecc:	ea24 0403 	bic.w	r4, r4, r3
 8000ed0:	600c      	str	r4, [r1, #0]
  SET_BIT(EXTI->EMR, ExtiLine);
 8000ed2:	684c      	ldr	r4, [r1, #4]
 8000ed4:	431c      	orrs	r4, r3
 8000ed6:	604c      	str	r4, [r1, #4]
          break;
      }
      if (EXTI_InitStruct->Trigger != LL_EXTI_TRIGGER_NONE)
 8000ed8:	7992      	ldrb	r2, [r2, #6]
 8000eda:	2a00      	cmp	r2, #0
 8000edc:	d02e      	beq.n	8000f3c <LL_EXTI_Init+0xa8>
      {
        switch (EXTI_InitStruct->Trigger)
 8000ede:	2a02      	cmp	r2, #2
 8000ee0:	d014      	beq.n	8000f0c <LL_EXTI_Init+0x78>
 8000ee2:	2a03      	cmp	r2, #3
 8000ee4:	d01b      	beq.n	8000f1e <LL_EXTI_Init+0x8a>
 8000ee6:	2a01      	cmp	r2, #1
 8000ee8:	d127      	bne.n	8000f3a <LL_EXTI_Init+0xa6>
  * @note   Please check each device line mapping for EXTI Line availability
  * @retval None
  */
__STATIC_INLINE void LL_EXTI_DisableFallingTrig_0_31(uint32_t ExtiLine)
{
  CLEAR_BIT(EXTI->FTSR, ExtiLine);
 8000eea:	4a15      	ldr	r2, [pc, #84]	; (8000f40 <LL_EXTI_Init+0xac>)
 8000eec:	68d1      	ldr	r1, [r2, #12]
 8000eee:	ea21 0103 	bic.w	r1, r1, r3
 8000ef2:	60d1      	str	r1, [r2, #12]
  SET_BIT(EXTI->RTSR, ExtiLine);
 8000ef4:	6891      	ldr	r1, [r2, #8]
 8000ef6:	430b      	orrs	r3, r1
 8000ef8:	6093      	str	r3, [r2, #8]
 8000efa:	bd10      	pop	{r4, pc}
  SET_BIT(EXTI->IMR, ExtiLine);
 8000efc:	4910      	ldr	r1, [pc, #64]	; (8000f40 <LL_EXTI_Init+0xac>)
 8000efe:	6808      	ldr	r0, [r1, #0]
 8000f00:	4318      	orrs	r0, r3
 8000f02:	6008      	str	r0, [r1, #0]
  SET_BIT(EXTI->EMR, ExtiLine);
 8000f04:	6848      	ldr	r0, [r1, #4]
 8000f06:	4318      	orrs	r0, r3
 8000f08:	6048      	str	r0, [r1, #4]
 8000f0a:	e7db      	b.n	8000ec4 <LL_EXTI_Init+0x30>
  CLEAR_BIT(EXTI->RTSR, ExtiLine);
 8000f0c:	4a0c      	ldr	r2, [pc, #48]	; (8000f40 <LL_EXTI_Init+0xac>)
 8000f0e:	6891      	ldr	r1, [r2, #8]
 8000f10:	ea21 0103 	bic.w	r1, r1, r3
  SET_BIT(EXTI->RTSR, ExtiLine);
 8000f14:	6091      	str	r1, [r2, #8]
  SET_BIT(EXTI->FTSR, ExtiLine);
 8000f16:	68d1      	ldr	r1, [r2, #12]
 8000f18:	430b      	orrs	r3, r1
 8000f1a:	60d3      	str	r3, [r2, #12]
 8000f1c:	bd10      	pop	{r4, pc}
  SET_BIT(EXTI->RTSR, ExtiLine);
 8000f1e:	4a08      	ldr	r2, [pc, #32]	; (8000f40 <LL_EXTI_Init+0xac>)
 8000f20:	6891      	ldr	r1, [r2, #8]
 8000f22:	4319      	orrs	r1, r3
 8000f24:	e7f6      	b.n	8000f14 <LL_EXTI_Init+0x80>
  CLEAR_BIT(EXTI->IMR, ExtiLine);
 8000f26:	43db      	mvns	r3, r3
 8000f28:	4a05      	ldr	r2, [pc, #20]	; (8000f40 <LL_EXTI_Init+0xac>)
 8000f2a:	6811      	ldr	r1, [r2, #0]
 8000f2c:	4019      	ands	r1, r3
 8000f2e:	6011      	str	r1, [r2, #0]
  CLEAR_BIT(EXTI->EMR, ExtiLine);
 8000f30:	6851      	ldr	r1, [r2, #4]
 8000f32:	400b      	ands	r3, r1
 8000f34:	6053      	str	r3, [r2, #4]
  ErrorStatus status = SUCCESS;
 8000f36:	2001      	movs	r0, #1
 8000f38:	bd10      	pop	{r4, pc}
          case LL_EXTI_TRIGGER_RISING_FALLING:
            LL_EXTI_EnableRisingTrig_0_31(EXTI_InitStruct->Line_0_31);
            LL_EXTI_EnableFallingTrig_0_31(EXTI_InitStruct->Line_0_31);
            break;
          default:
            status = ERROR;
 8000f3a:	2000      	movs	r0, #0
    /* De-configure EXTI Lines in range from 0 to 31 */
    LL_EXTI_DisableIT_0_31(EXTI_InitStruct->Line_0_31);
    LL_EXTI_DisableEvent_0_31(EXTI_InitStruct->Line_0_31);
  }
  return status;
}
 8000f3c:	bd10      	pop	{r4, pc}
 8000f3e:	bf00      	nop
 8000f40:	40010400 	.word	0x40010400

08000f44 <LL_GPIO_Init>:
  * @retval An ErrorStatus enumeration value:
  *          - SUCCESS: GPIO registers are initialized according to GPIO_InitStruct content
  *          - ERROR:   Not applicable
  */
ErrorStatus LL_GPIO_Init(GPIO_TypeDef *GPIOx, LL_GPIO_InitTypeDef *GPIO_InitStruct)
{
 8000f44:	e92d 4ff0 	stmdb	sp!, {r4, r5, r6, r7, r8, r9, sl, fp, lr}
  assert_param(IS_LL_GPIO_PIN(GPIO_InitStruct->Pin));

  /* ------------------------- Configure the port pins ---------------- */
  /* Initialize  pinpos on first pin set */

  pinmask = ((GPIO_InitStruct->Pin) << GPIO_PIN_MASK_POS) >> GPIO_PIN_NB;
 8000f48:	680d      	ldr	r5, [r1, #0]
 8000f4a:	f3c5 250f 	ubfx	r5, r5, #8, #16
__attribute__((always_inline)) __STATIC_INLINE uint32_t __RBIT(uint32_t value)
{
  uint32_t result;

#if       (__CORTEX_M >= 0x03U) || (__CORTEX_SC >= 300U)
   __ASM volatile ("rbit %0, %1" : "=r" (result) : "r" (value) );
 8000f4e:	fa95 f2a5 	rbit	r2, r5
  * @retval None
  */
__STATIC_INLINE void LL_GPIO_SetPinMode(GPIO_TypeDef *GPIOx, uint32_t Pin, uint32_t Mode)
{
  register uint32_t *pReg = (uint32_t *)((uint32_t)(&GPIOx->CRL) + (Pin >> 24));
  MODIFY_REG(*pReg, ((GPIO_CRL_CNF0 | GPIO_CRL_MODE0) << (POSITION_VAL(Pin) * 4U)), (Mode << (POSITION_VAL(Pin) * 4U)));
 8000f52:	f04f 090f 	mov.w	r9, #15
  pinpos = POSITION_VAL(pinmask);
 8000f56:	fab2 f282 	clz	r2, r2
  * @retval None
  */
__STATIC_INLINE void LL_GPIO_SetPinSpeed(GPIO_TypeDef *GPIOx, uint32_t Pin, uint32_t  Speed)
{
  register uint32_t *pReg = (uint32_t *)((uint32_t)(&GPIOx->CRL) + (Pin >> 24));
  MODIFY_REG(*pReg, (GPIO_CRL_MODE0 << (POSITION_VAL(Pin) * 4U)),
 8000f5a:	f04f 0803 	mov.w	r8, #3
  * @retval None
  */
__STATIC_INLINE void LL_GPIO_SetPinOutputType(GPIO_TypeDef *GPIOx, uint32_t Pin, uint32_t OutputType)
{
  register uint32_t *pReg = (uint32_t *)((uint32_t)(&GPIOx->CRL) + (Pin >> 24));
  MODIFY_REG(*pReg, (GPIO_CRL_CNF0_0 << (POSITION_VAL(Pin) * 4U)),
 8000f5e:	f04f 0c04 	mov.w	ip, #4
    if ((pinmask & (1U << pinpos)) != 0U)
    {
      /* Get current io position */
      if (pinpos < GPIO_PIN_MASK_POS)
      {
        currentpin = (0x00000101U << pinpos);
 8000f62:	f240 1e01 	movw	lr, #257	; 0x101
  while ((pinmask  >> pinpos) != 0U)
 8000f66:	fa35 f302 	lsrs.w	r3, r5, r2
 8000f6a:	d102      	bne.n	8000f72 <LL_GPIO_Init+0x2e>
      }
    }
    pinpos++;
  }
  return (SUCCESS);
}
 8000f6c:	2001      	movs	r0, #1
 8000f6e:	e8bd 8ff0 	ldmia.w	sp!, {r4, r5, r6, r7, r8, r9, sl, fp, pc}
    if ((pinmask & (1U << pinpos)) != 0U)
 8000f72:	2301      	movs	r3, #1
 8000f74:	4093      	lsls	r3, r2
 8000f76:	422b      	tst	r3, r5
 8000f78:	d063      	beq.n	8001042 <LL_GPIO_Init+0xfe>
      if (pinpos < GPIO_PIN_MASK_POS)
 8000f7a:	2a07      	cmp	r2, #7
        currentpin = ((0x00010001U << (pinpos - GPIO_PIN_MASK_POS)) | 0x04000000U);
 8000f7c:	bf83      	ittte	hi
 8000f7e:	f04f 1401 	movhi.w	r4, #65537	; 0x10001
 8000f82:	f1a2 0308 	subhi.w	r3, r2, #8
 8000f86:	fa04 f303 	lslhi.w	r3, r4, r3
        currentpin = (0x00000101U << pinpos);
 8000f8a:	fa0e f302 	lslls.w	r3, lr, r2
        currentpin = ((0x00010001U << (pinpos - GPIO_PIN_MASK_POS)) | 0x04000000U);
 8000f8e:	bf88      	it	hi
 8000f90:	f043 6380 	orrhi.w	r3, r3, #67108864	; 0x4000000
  register uint32_t *pReg = (uint32_t *)((uint32_t)(&GPIOx->CRL) + (Pin >> 24));
 8000f94:	0e1e      	lsrs	r6, r3, #24
 8000f96:	fa93 faa3 	rbit	sl, r3
  MODIFY_REG(*pReg, ((GPIO_CRL_CNF0 | GPIO_CRL_MODE0) << (POSITION_VAL(Pin) * 4U)), (Mode << (POSITION_VAL(Pin) * 4U)));
 8000f9a:	faba fa8a 	clz	sl, sl
 8000f9e:	fa93 fba3 	rbit	fp, r3
 8000fa2:	fabb fb8b 	clz	fp, fp
 8000fa6:	5984      	ldr	r4, [r0, r6]
 8000fa8:	ea4f 0a8a 	mov.w	sl, sl, lsl #2
 8000fac:	fa09 fa0a 	lsl.w	sl, r9, sl
 8000fb0:	ea24 0a0a 	bic.w	sl, r4, sl
 8000fb4:	684c      	ldr	r4, [r1, #4]
 8000fb6:	ea4f 0b8b 	mov.w	fp, fp, lsl #2
 8000fba:	fa04 fb0b 	lsl.w	fp, r4, fp
 8000fbe:	ea4a 040b 	orr.w	r4, sl, fp
 8000fc2:	5184      	str	r4, [r0, r6]
  *         @arg @ref LL_GPIO_PULL_UP
  * @retval None
  */
__STATIC_INLINE void LL_GPIO_SetPinPull(GPIO_TypeDef *GPIOx, uint32_t Pin, uint32_t Pull)
{
  MODIFY_REG(GPIOx->ODR, (Pin >> GPIO_PIN_MASK_POS), Pull << (POSITION_VAL(Pin >> GPIO_PIN_MASK_POS)));
 8000fc4:	68c4      	ldr	r4, [r0, #12]
 8000fc6:	ea4f 2a13 	mov.w	sl, r3, lsr #8
 8000fca:	fa9a fbaa 	rbit	fp, sl
 8000fce:	fabb fb8b 	clz	fp, fp
 8000fd2:	ea24 0a0a 	bic.w	sl, r4, sl
 8000fd6:	690c      	ldr	r4, [r1, #16]
 8000fd8:	fa04 f40b 	lsl.w	r4, r4, fp
 8000fdc:	ea4a 0404 	orr.w	r4, sl, r4
 8000fe0:	60c4      	str	r4, [r0, #12]
      if ((GPIO_InitStruct->Mode == LL_GPIO_MODE_OUTPUT) || (GPIO_InitStruct->Mode == LL_GPIO_MODE_ALTERNATE))
 8000fe2:	684c      	ldr	r4, [r1, #4]
 8000fe4:	f024 0408 	bic.w	r4, r4, #8
 8000fe8:	2c01      	cmp	r4, #1
 8000fea:	d12a      	bne.n	8001042 <LL_GPIO_Init+0xfe>
 8000fec:	fa93 faa3 	rbit	sl, r3
  MODIFY_REG(*pReg, (GPIO_CRL_MODE0 << (POSITION_VAL(Pin) * 4U)),
 8000ff0:	faba fa8a 	clz	sl, sl
 8000ff4:	fa93 f4a3 	rbit	r4, r3
 8000ff8:	fab4 f484 	clz	r4, r4
 8000ffc:	5987      	ldr	r7, [r0, r6]
 8000ffe:	ea4f 0b84 	mov.w	fp, r4, lsl #2
 8001002:	ea4f 0a8a 	mov.w	sl, sl, lsl #2
 8001006:	688c      	ldr	r4, [r1, #8]
 8001008:	fa08 fa0a 	lsl.w	sl, r8, sl
 800100c:	ea27 0a0a 	bic.w	sl, r7, sl
 8001010:	fa04 f40b 	lsl.w	r4, r4, fp
 8001014:	ea4a 0404 	orr.w	r4, sl, r4
 8001018:	5184      	str	r4, [r0, r6]
 800101a:	fa93 fba3 	rbit	fp, r3
  MODIFY_REG(*pReg, (GPIO_CRL_CNF0_0 << (POSITION_VAL(Pin) * 4U)),
 800101e:	fabb fb8b 	clz	fp, fp
 8001022:	fa93 f3a3 	rbit	r3, r3
 8001026:	fab3 f383 	clz	r3, r3
 800102a:	68cf      	ldr	r7, [r1, #12]
 800102c:	ea4f 0b8b 	mov.w	fp, fp, lsl #2
 8001030:	fa0c fb0b 	lsl.w	fp, ip, fp
 8001034:	009b      	lsls	r3, r3, #2
 8001036:	ea24 040b 	bic.w	r4, r4, fp
 800103a:	fa07 f303 	lsl.w	r3, r7, r3
 800103e:	431c      	orrs	r4, r3
 8001040:	5184      	str	r4, [r0, r6]
    pinpos++;
 8001042:	3201      	adds	r2, #1
 8001044:	e78f      	b.n	8000f66 <LL_GPIO_Init+0x22>
	...

08001048 <RCC_GetHCLKClockFreq>:
  *         @arg @ref LL_RCC_SYSCLK_DIV_256
  *         @arg @ref LL_RCC_SYSCLK_DIV_512
  */
__STATIC_INLINE uint32_t LL_RCC_GetAHBPrescaler(void)
{
  return (uint32_t)(READ_BIT(RCC->CFGR, RCC_CFGR_HPRE));
 8001048:	4b03      	ldr	r3, [pc, #12]	; (8001058 <RCC_GetHCLKClockFreq+0x10>)
  * @retval HCLK clock frequency (in Hz)
  */
uint32_t RCC_GetHCLKClockFreq(uint32_t SYSCLK_Frequency)
{
  /* HCLK clock frequency */
  return __LL_RCC_CALC_HCLK_FREQ(SYSCLK_Frequency, LL_RCC_GetAHBPrescaler());
 800104a:	4a04      	ldr	r2, [pc, #16]	; (800105c <RCC_GetHCLKClockFreq+0x14>)
 800104c:	685b      	ldr	r3, [r3, #4]
 800104e:	f3c3 1303 	ubfx	r3, r3, #4, #4
 8001052:	5cd3      	ldrb	r3, [r2, r3]
}
 8001054:	40d8      	lsrs	r0, r3
 8001056:	4770      	bx	lr
 8001058:	40021000 	.word	0x40021000
 800105c:	08004086 	.word	0x08004086

08001060 <RCC_GetPCLK1ClockFreq>:
  *         @arg @ref LL_RCC_APB1_DIV_8
  *         @arg @ref LL_RCC_APB1_DIV_16
  */
__STATIC_INLINE uint32_t LL_RCC_GetAPB1Prescaler(void)
{
  return (uint32_t)(READ_BIT(RCC->CFGR, RCC_CFGR_PPRE1));
 8001060:	4b03      	ldr	r3, [pc, #12]	; (8001070 <RCC_GetPCLK1ClockFreq+0x10>)
  * @retval PCLK1 clock frequency (in Hz)
  */
uint32_t RCC_GetPCLK1ClockFreq(uint32_t HCLK_Frequency)
{
  /* PCLK1 clock frequency */
  return __LL_RCC_CALC_PCLK1_FREQ(HCLK_Frequency, LL_RCC_GetAPB1Prescaler());
 8001062:	4a04      	ldr	r2, [pc, #16]	; (8001074 <RCC_GetPCLK1ClockFreq+0x14>)
 8001064:	685b      	ldr	r3, [r3, #4]
 8001066:	f3c3 2302 	ubfx	r3, r3, #8, #3
 800106a:	5cd3      	ldrb	r3, [r2, r3]
}
 800106c:	40d8      	lsrs	r0, r3
 800106e:	4770      	bx	lr
 8001070:	40021000 	.word	0x40021000
 8001074:	08004096 	.word	0x08004096

08001078 <RCC_GetPCLK2ClockFreq>:
  *         @arg @ref LL_RCC_APB2_DIV_8
  *         @arg @ref LL_RCC_APB2_DIV_16
  */
__STATIC_INLINE uint32_t LL_RCC_GetAPB2Prescaler(void)
{
  return (uint32_t)(READ_BIT(RCC->CFGR, RCC_CFGR_PPRE2));
 8001078:	4b03      	ldr	r3, [pc, #12]	; (8001088 <RCC_GetPCLK2ClockFreq+0x10>)
  * @retval PCLK2 clock frequency (in Hz)
  */
uint32_t RCC_GetPCLK2ClockFreq(uint32_t HCLK_Frequency)
{
  /* PCLK2 clock frequency */
  return __LL_RCC_CALC_PCLK2_FREQ(HCLK_Frequency, LL_RCC_GetAPB2Prescaler());
 800107a:	4a04      	ldr	r2, [pc, #16]	; (800108c <RCC_GetPCLK2ClockFreq+0x14>)
 800107c:	685b      	ldr	r3, [r3, #4]
 800107e:	f3c3 23c2 	ubfx	r3, r3, #11, #3
 8001082:	5cd3      	ldrb	r3, [r2, r3]
}
 8001084:	40d8      	lsrs	r0, r3
 8001086:	4770      	bx	lr
 8001088:	40021000 	.word	0x40021000
 800108c:	08004096 	.word	0x08004096

08001090 <RCC_PLL_GetFreqDomain_SYS>:
#if defined(RCC_CFGR2_PREDIV1SRC)
  register uint32_t pllsrc = READ_BIT(RCC->CFGR, RCC_CFGR_PLLSRC);
  register uint32_t predivsrc = (uint32_t)(READ_BIT(RCC->CFGR2, RCC_CFGR2_PREDIV1SRC) << 4U);
  return (uint32_t)(pllsrc | predivsrc);
#else
  return (uint32_t)(READ_BIT(RCC->CFGR, RCC_CFGR_PLLSRC));
 8001090:	4b09      	ldr	r3, [pc, #36]	; (80010b8 <RCC_PLL_GetFreqDomain_SYS+0x28>)
 8001092:	685a      	ldr	r2, [r3, #4]
 8001094:	f402 3280 	and.w	r2, r2, #65536	; 0x10000
  /* PLL_VCO = (HSE_VALUE, HSI_VALUE or PLL2 / PLL Predivider) * PLL Multiplicator */

  /* Get PLL source */
  pllsource = LL_RCC_PLL_GetMainSource();

  switch (pllsource)
 8001098:	b162      	cbz	r2, 80010b4 <RCC_PLL_GetFreqDomain_SYS+0x24>
__STATIC_INLINE uint32_t LL_RCC_PLL_GetPrediv(void)
{
#if defined(RCC_CFGR2_PREDIV1)
  return (uint32_t)(READ_BIT(RCC->CFGR2, RCC_CFGR2_PREDIV1));
#else
  return (uint32_t)(READ_BIT(RCC->CFGR, RCC_CFGR_PLLXTPRE) >> RCC_CFGR_PLLXTPRE_Pos);
 800109a:	6858      	ldr	r0, [r3, #4]
    case LL_RCC_PLLSOURCE_HSI_DIV_2: /* HSI used as PLL clock source */
      pllinputfreq = HSI_VALUE / 2U;
      break;

    case LL_RCC_PLLSOURCE_HSE:       /* HSE used as PLL clock source */
      pllinputfreq = HSE_VALUE / (LL_RCC_PLL_GetPrediv() + 1U);
 800109c:	4a07      	ldr	r2, [pc, #28]	; (80010bc <RCC_PLL_GetFreqDomain_SYS+0x2c>)
 800109e:	f3c0 4040 	ubfx	r0, r0, #17, #1
 80010a2:	3001      	adds	r0, #1
 80010a4:	fbb2 f0f0 	udiv	r0, r2, r0
  return (uint32_t)(READ_BIT(RCC->CFGR, RCC_CFGR_PLLMULL));
 80010a8:	685b      	ldr	r3, [r3, #4]

    default:
      pllinputfreq = HSI_VALUE / 2U;
      break;
  }
  return __LL_RCC_CALC_PLLCLK_FREQ(pllinputfreq, LL_RCC_PLL_GetMultiplicator());
 80010aa:	f3c3 4383 	ubfx	r3, r3, #18, #4
 80010ae:	3302      	adds	r3, #2
}
 80010b0:	4358      	muls	r0, r3
 80010b2:	4770      	bx	lr
      pllinputfreq = HSI_VALUE / 2U;
 80010b4:	4802      	ldr	r0, [pc, #8]	; (80010c0 <RCC_PLL_GetFreqDomain_SYS+0x30>)
 80010b6:	e7f7      	b.n	80010a8 <RCC_PLL_GetFreqDomain_SYS+0x18>
 80010b8:	40021000 	.word	0x40021000
 80010bc:	007a1200 	.word	0x007a1200
 80010c0:	003d0900 	.word	0x003d0900

080010c4 <RCC_GetSystemClockFreq>:
  return (uint32_t)(READ_BIT(RCC->CFGR, RCC_CFGR_SWS));
 80010c4:	4b04      	ldr	r3, [pc, #16]	; (80010d8 <RCC_GetSystemClockFreq+0x14>)
 80010c6:	685b      	ldr	r3, [r3, #4]
 80010c8:	f003 030c 	and.w	r3, r3, #12
  switch (LL_RCC_GetSysClkSource())
 80010cc:	2b08      	cmp	r3, #8
 80010ce:	d101      	bne.n	80010d4 <RCC_GetSystemClockFreq+0x10>
      frequency = RCC_PLL_GetFreqDomain_SYS();
 80010d0:	f7ff bfde 	b.w	8001090 <RCC_PLL_GetFreqDomain_SYS>
}
 80010d4:	4801      	ldr	r0, [pc, #4]	; (80010dc <RCC_GetSystemClockFreq+0x18>)
 80010d6:	4770      	bx	lr
 80010d8:	40021000 	.word	0x40021000
 80010dc:	007a1200 	.word	0x007a1200

080010e0 <LL_RCC_GetSystemClocksFreq>:
{
 80010e0:	b508      	push	{r3, lr}
 80010e2:	4601      	mov	r1, r0
  RCC_Clocks->SYSCLK_Frequency = RCC_GetSystemClockFreq();
 80010e4:	f7ff ffee 	bl	80010c4 <RCC_GetSystemClockFreq>
 80010e8:	6008      	str	r0, [r1, #0]
  RCC_Clocks->HCLK_Frequency   = RCC_GetHCLKClockFreq(RCC_Clocks->SYSCLK_Frequency);
 80010ea:	f7ff ffad 	bl	8001048 <RCC_GetHCLKClockFreq>
 80010ee:	6048      	str	r0, [r1, #4]
  RCC_Clocks->PCLK1_Frequency  = RCC_GetPCLK1ClockFreq(RCC_Clocks->HCLK_Frequency);
 80010f0:	f7ff ffb6 	bl	8001060 <RCC_GetPCLK1ClockFreq>
 80010f4:	6088      	str	r0, [r1, #8]
  RCC_Clocks->PCLK2_Frequency  = RCC_GetPCLK2ClockFreq(RCC_Clocks->HCLK_Frequency);
 80010f6:	6848      	ldr	r0, [r1, #4]
 80010f8:	f7ff ffbe 	bl	8001078 <RCC_GetPCLK2ClockFreq>
 80010fc:	60c8      	str	r0, [r1, #12]
 80010fe:	bd08      	pop	{r3, pc}

08001100 <LL_TIM_Init>:
  assert_param(IS_LL_TIM_COUNTERMODE(TIM_InitStruct->CounterMode));
  assert_param(IS_LL_TIM_CLOCKDIVISION(TIM_InitStruct->ClockDivision));

  tmpcr1 = LL_TIM_ReadReg(TIMx, CR1);

  if (IS_TIM_COUNTER_MODE_SELECT_INSTANCE(TIMx))
 8001100:	4a1a      	ldr	r2, [pc, #104]	; (800116c <LL_TIM_Init+0x6c>)
  tmpcr1 = LL_TIM_ReadReg(TIMx, CR1);
 8001102:	6803      	ldr	r3, [r0, #0]
  if (IS_TIM_COUNTER_MODE_SELECT_INSTANCE(TIMx))
 8001104:	4290      	cmp	r0, r2
 8001106:	d00a      	beq.n	800111e <LL_TIM_Init+0x1e>
 8001108:	f1b0 4f80 	cmp.w	r0, #1073741824	; 0x40000000
 800110c:	d007      	beq.n	800111e <LL_TIM_Init+0x1e>
 800110e:	f5a2 3294 	sub.w	r2, r2, #75776	; 0x12800
 8001112:	4290      	cmp	r0, r2
 8001114:	d003      	beq.n	800111e <LL_TIM_Init+0x1e>
 8001116:	f502 6280 	add.w	r2, r2, #1024	; 0x400
 800111a:	4290      	cmp	r0, r2
 800111c:	d115      	bne.n	800114a <LL_TIM_Init+0x4a>
  {
    /* Select the Counter Mode */
    MODIFY_REG(tmpcr1, (TIM_CR1_DIR | TIM_CR1_CMS), TIM_InitStruct->CounterMode);
 800111e:	684a      	ldr	r2, [r1, #4]
 8001120:	f023 0370 	bic.w	r3, r3, #112	; 0x70
 8001124:	4313      	orrs	r3, r2
  }

  if (IS_TIM_CLOCK_DIVISION_INSTANCE(TIMx))
 8001126:	4a11      	ldr	r2, [pc, #68]	; (800116c <LL_TIM_Init+0x6c>)
 8001128:	4290      	cmp	r0, r2
 800112a:	d00a      	beq.n	8001142 <LL_TIM_Init+0x42>
 800112c:	f1b0 4f80 	cmp.w	r0, #1073741824	; 0x40000000
 8001130:	d007      	beq.n	8001142 <LL_TIM_Init+0x42>
 8001132:	f5a2 3294 	sub.w	r2, r2, #75776	; 0x12800
 8001136:	4290      	cmp	r0, r2
 8001138:	d003      	beq.n	8001142 <LL_TIM_Init+0x42>
 800113a:	f502 6280 	add.w	r2, r2, #1024	; 0x400
 800113e:	4290      	cmp	r0, r2
 8001140:	d103      	bne.n	800114a <LL_TIM_Init+0x4a>
  {
    /* Set the clock division */
    MODIFY_REG(tmpcr1, TIM_CR1_CKD, TIM_InitStruct->ClockDivision);
 8001142:	68ca      	ldr	r2, [r1, #12]
 8001144:	f423 7340 	bic.w	r3, r3, #768	; 0x300
 8001148:	4313      	orrs	r3, r2
  }

  /* Write to TIMx CR1 */
  LL_TIM_WriteReg(TIMx, CR1, tmpcr1);
 800114a:	6003      	str	r3, [r0, #0]

  /* Set the Autoreload value */
  LL_TIM_SetAutoReload(TIMx, TIM_InitStruct->Autoreload);
 800114c:	688b      	ldr	r3, [r1, #8]
  * @param  AutoReload between Min_Data=0 and Max_Data=65535
  * @retval None
  */
__STATIC_INLINE void LL_TIM_SetAutoReload(TIM_TypeDef *TIMx, uint32_t AutoReload)
{
  WRITE_REG(TIMx->ARR, AutoReload);
 800114e:	62c3      	str	r3, [r0, #44]	; 0x2c

  /* Set the Prescaler value */
  LL_TIM_SetPrescaler(TIMx, TIM_InitStruct->Prescaler);
 8001150:	880b      	ldrh	r3, [r1, #0]
  WRITE_REG(TIMx->PSC, Prescaler);
 8001152:	6283      	str	r3, [r0, #40]	; 0x28

  if (IS_TIM_REPETITION_COUNTER_INSTANCE(TIMx))
 8001154:	4b05      	ldr	r3, [pc, #20]	; (800116c <LL_TIM_Init+0x6c>)
 8001156:	4298      	cmp	r0, r3
  {
    /* Set the Repetition Counter value */
    LL_TIM_SetRepetitionCounter(TIMx, TIM_InitStruct->RepetitionCounter);
 8001158:	bf04      	itt	eq
 800115a:	7c0b      	ldrbeq	r3, [r1, #16]
  * @param  RepetitionCounter between Min_Data=0 and Max_Data=255
  * @retval None
  */
__STATIC_INLINE void LL_TIM_SetRepetitionCounter(TIM_TypeDef *TIMx, uint32_t RepetitionCounter)
{
  WRITE_REG(TIMx->RCR, RepetitionCounter);
 800115c:	6303      	streq	r3, [r0, #48]	; 0x30
  * @param  TIMx Timer instance
  * @retval None
  */
__STATIC_INLINE void LL_TIM_GenerateEvent_UPDATE(TIM_TypeDef *TIMx)
{
  SET_BIT(TIMx->EGR, TIM_EGR_UG);
 800115e:	6943      	ldr	r3, [r0, #20]
 8001160:	f043 0301 	orr.w	r3, r3, #1
 8001164:	6143      	str	r3, [r0, #20]
  /* Generate an update event to reload the Prescaler
     and the repetition counter value (if applicable) immediately */
  LL_TIM_GenerateEvent_UPDATE(TIMx);

  return SUCCESS;
}
 8001166:	2001      	movs	r0, #1
 8001168:	4770      	bx	lr
 800116a:	bf00      	nop
 800116c:	40012c00 	.word	0x40012c00

08001170 <LL_TIM_OC_Init>:
  */
ErrorStatus LL_TIM_OC_Init(TIM_TypeDef *TIMx, uint32_t Channel, LL_TIM_OC_InitTypeDef *TIM_OC_InitStruct)
{
  ErrorStatus result = ERROR;

  switch (Channel)
 8001170:	2910      	cmp	r1, #16
{
 8001172:	b530      	push	{r4, r5, lr}
  switch (Channel)
 8001174:	d05f      	beq.n	8001236 <LL_TIM_OC_Init+0xc6>
 8001176:	d803      	bhi.n	8001180 <LL_TIM_OC_Init+0x10>
 8001178:	2901      	cmp	r1, #1
 800117a:	d02c      	beq.n	80011d6 <LL_TIM_OC_Init+0x66>
  ErrorStatus result = ERROR;
 800117c:	2000      	movs	r0, #0
    default:
      break;
  }

  return result;
}
 800117e:	bd30      	pop	{r4, r5, pc}
  switch (Channel)
 8001180:	f5b1 7f80 	cmp.w	r1, #256	; 0x100
 8001184:	f000 8089 	beq.w	800129a <LL_TIM_OC_Init+0x12a>
 8001188:	f5b1 5f80 	cmp.w	r1, #4096	; 0x1000
 800118c:	d1f6      	bne.n	800117c <LL_TIM_OC_Init+0xc>
  assert_param(IS_LL_TIM_OCPOLARITY(TIM_OCInitStruct->OCPolarity));
  assert_param(IS_LL_TIM_OCPOLARITY(TIM_OCInitStruct->OCNPolarity));
  assert_param(IS_LL_TIM_OCSTATE(TIM_OCInitStruct->OCNState));

  /* Disable the Channel 4: Reset the CC4E Bit */
  CLEAR_BIT(TIMx->CCER, TIM_CCER_CC4E);
 800118e:	6a03      	ldr	r3, [r0, #32]

  /* Reset Capture/Compare selection Bits */
  CLEAR_BIT(tmpccmr2, TIM_CCMR2_CC4S);

  /* Select the Output Compare Mode */
  MODIFY_REG(tmpccmr2, TIM_CCMR2_OC4M, TIM_OCInitStruct->OCMode << 8U);
 8001190:	6815      	ldr	r5, [r2, #0]
  CLEAR_BIT(TIMx->CCER, TIM_CCER_CC4E);
 8001192:	f423 5380 	bic.w	r3, r3, #4096	; 0x1000
 8001196:	6203      	str	r3, [r0, #32]
  tmpccer = LL_TIM_ReadReg(TIMx, CCER);
 8001198:	6a03      	ldr	r3, [r0, #32]
  tmpcr2 =  LL_TIM_ReadReg(TIMx, CR2);
 800119a:	6844      	ldr	r4, [r0, #4]
  tmpccmr2 = LL_TIM_ReadReg(TIMx, CCMR2);
 800119c:	69c1      	ldr	r1, [r0, #28]

  /* Set the Output Compare Polarity */
  MODIFY_REG(tmpccer, TIM_CCER_CC4P, TIM_OCInitStruct->OCPolarity << 12U);
 800119e:	f423 5300 	bic.w	r3, r3, #8192	; 0x2000
  MODIFY_REG(tmpccmr2, TIM_CCMR2_OC4M, TIM_OCInitStruct->OCMode << 8U);
 80011a2:	f421 41e6 	bic.w	r1, r1, #29440	; 0x7300
 80011a6:	ea41 2105 	orr.w	r1, r1, r5, lsl #8
  MODIFY_REG(tmpccer, TIM_CCER_CC4P, TIM_OCInitStruct->OCPolarity << 12U);
 80011aa:	6915      	ldr	r5, [r2, #16]
 80011ac:	ea43 3305 	orr.w	r3, r3, r5, lsl #12

  /* Set the Output State */
  MODIFY_REG(tmpccer, TIM_CCER_CC4E, TIM_OCInitStruct->OCState << 12U);
 80011b0:	6855      	ldr	r5, [r2, #4]
 80011b2:	f423 5380 	bic.w	r3, r3, #4096	; 0x1000
 80011b6:	ea43 3305 	orr.w	r3, r3, r5, lsl #12

  if (IS_TIM_BREAK_INSTANCE(TIMx))
 80011ba:	4d50      	ldr	r5, [pc, #320]	; (80012fc <LL_TIM_OC_Init+0x18c>)
 80011bc:	42a8      	cmp	r0, r5
  {
    assert_param(IS_LL_TIM_OCIDLESTATE(TIM_OCInitStruct->OCNIdleState));
    assert_param(IS_LL_TIM_OCIDLESTATE(TIM_OCInitStruct->OCIdleState));

    /* Set the Output Idle state */
    MODIFY_REG(tmpcr2, TIM_CR2_OIS4, TIM_OCInitStruct->OCIdleState << 6U);
 80011be:	bf04      	itt	eq
 80011c0:	6995      	ldreq	r5, [r2, #24]
 80011c2:	f424 4480 	biceq.w	r4, r4, #16384	; 0x4000

  /* Write to TIMx CCMR2 */
  LL_TIM_WriteReg(TIMx, CCMR2, tmpccmr2);

  /* Set the Capture Compare Register value */
  LL_TIM_OC_SetCompareCH4(TIMx, TIM_OCInitStruct->CompareValue);
 80011c6:	68d2      	ldr	r2, [r2, #12]
    MODIFY_REG(tmpcr2, TIM_CR2_OIS4, TIM_OCInitStruct->OCIdleState << 6U);
 80011c8:	bf08      	it	eq
 80011ca:	ea44 1485 	orreq.w	r4, r4, r5, lsl #6
  LL_TIM_WriteReg(TIMx, CR2, tmpcr2);
 80011ce:	6044      	str	r4, [r0, #4]
  LL_TIM_WriteReg(TIMx, CCMR2, tmpccmr2);
 80011d0:	61c1      	str	r1, [r0, #28]
  WRITE_REG(TIMx->CCR4, CompareValue);
 80011d2:	6402      	str	r2, [r0, #64]	; 0x40
 80011d4:	e02c      	b.n	8001230 <LL_TIM_OC_Init+0xc0>
  CLEAR_BIT(TIMx->CCER, TIM_CCER_CC1E);
 80011d6:	6a03      	ldr	r3, [r0, #32]
  MODIFY_REG(tmpccmr1, TIM_CCMR1_OC1M, TIM_OCInitStruct->OCMode);
 80011d8:	6815      	ldr	r5, [r2, #0]
  CLEAR_BIT(TIMx->CCER, TIM_CCER_CC1E);
 80011da:	f023 0301 	bic.w	r3, r3, #1
 80011de:	6203      	str	r3, [r0, #32]
  tmpccer = LL_TIM_ReadReg(TIMx, CCER);
 80011e0:	6a03      	ldr	r3, [r0, #32]
  tmpcr2 = LL_TIM_ReadReg(TIMx, CR2);
 80011e2:	6841      	ldr	r1, [r0, #4]
  tmpccmr1 = LL_TIM_ReadReg(TIMx, CCMR1);
 80011e4:	6984      	ldr	r4, [r0, #24]
  MODIFY_REG(tmpccer, TIM_CCER_CC1P, TIM_OCInitStruct->OCPolarity);
 80011e6:	f023 0302 	bic.w	r3, r3, #2
  MODIFY_REG(tmpccmr1, TIM_CCMR1_OC1M, TIM_OCInitStruct->OCMode);
 80011ea:	f024 0473 	bic.w	r4, r4, #115	; 0x73
 80011ee:	432c      	orrs	r4, r5
  MODIFY_REG(tmpccer, TIM_CCER_CC1P, TIM_OCInitStruct->OCPolarity);
 80011f0:	6915      	ldr	r5, [r2, #16]
 80011f2:	432b      	orrs	r3, r5
  MODIFY_REG(tmpccer, TIM_CCER_CC1E, TIM_OCInitStruct->OCState);
 80011f4:	6855      	ldr	r5, [r2, #4]
 80011f6:	f023 0301 	bic.w	r3, r3, #1
 80011fa:	432b      	orrs	r3, r5
  if (IS_TIM_BREAK_INSTANCE(TIMx))
 80011fc:	4d3f      	ldr	r5, [pc, #252]	; (80012fc <LL_TIM_OC_Init+0x18c>)
 80011fe:	42a8      	cmp	r0, r5
 8001200:	d112      	bne.n	8001228 <LL_TIM_OC_Init+0xb8>
    MODIFY_REG(tmpccer, TIM_CCER_CC1NP, TIM_OCInitStruct->OCNPolarity << 2U);
 8001202:	6955      	ldr	r5, [r2, #20]
 8001204:	f023 0308 	bic.w	r3, r3, #8
 8001208:	ea43 0385 	orr.w	r3, r3, r5, lsl #2
    MODIFY_REG(tmpccer, TIM_CCER_CC1NE, TIM_OCInitStruct->OCNState << 2U);
 800120c:	6895      	ldr	r5, [r2, #8]
 800120e:	f023 0304 	bic.w	r3, r3, #4
 8001212:	ea43 0385 	orr.w	r3, r3, r5, lsl #2
    MODIFY_REG(tmpcr2, TIM_CR2_OIS1, TIM_OCInitStruct->OCIdleState);
 8001216:	6995      	ldr	r5, [r2, #24]
 8001218:	f421 7180 	bic.w	r1, r1, #256	; 0x100
 800121c:	4329      	orrs	r1, r5
    MODIFY_REG(tmpcr2, TIM_CR2_OIS1N, TIM_OCInitStruct->OCNIdleState << 1U);
 800121e:	69d5      	ldr	r5, [r2, #28]
 8001220:	f421 7100 	bic.w	r1, r1, #512	; 0x200
 8001224:	ea41 0145 	orr.w	r1, r1, r5, lsl #1
  LL_TIM_OC_SetCompareCH1(TIMx, TIM_OCInitStruct->CompareValue);
 8001228:	68d2      	ldr	r2, [r2, #12]
  LL_TIM_WriteReg(TIMx, CR2, tmpcr2);
 800122a:	6041      	str	r1, [r0, #4]
  LL_TIM_WriteReg(TIMx, CCMR1, tmpccmr1);
 800122c:	6184      	str	r4, [r0, #24]
  WRITE_REG(TIMx->CCR1, CompareValue);
 800122e:	6342      	str	r2, [r0, #52]	; 0x34

  /* Write to TIMx CCER */
  LL_TIM_WriteReg(TIMx, CCER, tmpccer);
 8001230:	6203      	str	r3, [r0, #32]
      result = OC4Config(TIMx, TIM_OC_InitStruct);
 8001232:	2001      	movs	r0, #1
      break;
 8001234:	bd30      	pop	{r4, r5, pc}
  CLEAR_BIT(TIMx->CCER, TIM_CCER_CC2E);
 8001236:	6a03      	ldr	r3, [r0, #32]
  MODIFY_REG(tmpccmr1, TIM_CCMR1_OC2M, TIM_OCInitStruct->OCMode << 8U);
 8001238:	6815      	ldr	r5, [r2, #0]
  CLEAR_BIT(TIMx->CCER, TIM_CCER_CC2E);
 800123a:	f023 0310 	bic.w	r3, r3, #16
 800123e:	6203      	str	r3, [r0, #32]
  tmpccer =  LL_TIM_ReadReg(TIMx, CCER);
 8001240:	6a03      	ldr	r3, [r0, #32]
  tmpcr2 = LL_TIM_ReadReg(TIMx, CR2);
 8001242:	6841      	ldr	r1, [r0, #4]
  tmpccmr1 = LL_TIM_ReadReg(TIMx, CCMR1);
 8001244:	6984      	ldr	r4, [r0, #24]
  MODIFY_REG(tmpccer, TIM_CCER_CC2P, TIM_OCInitStruct->OCPolarity << 4U);
 8001246:	f023 0320 	bic.w	r3, r3, #32
  MODIFY_REG(tmpccmr1, TIM_CCMR1_OC2M, TIM_OCInitStruct->OCMode << 8U);
 800124a:	f424 44e6 	bic.w	r4, r4, #29440	; 0x7300
 800124e:	ea44 2405 	orr.w	r4, r4, r5, lsl #8
  MODIFY_REG(tmpccer, TIM_CCER_CC2P, TIM_OCInitStruct->OCPolarity << 4U);
 8001252:	6915      	ldr	r5, [r2, #16]
 8001254:	ea43 1305 	orr.w	r3, r3, r5, lsl #4
  MODIFY_REG(tmpccer, TIM_CCER_CC2E, TIM_OCInitStruct->OCState << 4U);
 8001258:	6855      	ldr	r5, [r2, #4]
 800125a:	f023 0310 	bic.w	r3, r3, #16
 800125e:	ea43 1305 	orr.w	r3, r3, r5, lsl #4
  if (IS_TIM_BREAK_INSTANCE(TIMx))
 8001262:	4d26      	ldr	r5, [pc, #152]	; (80012fc <LL_TIM_OC_Init+0x18c>)
 8001264:	42a8      	cmp	r0, r5
 8001266:	d113      	bne.n	8001290 <LL_TIM_OC_Init+0x120>
    MODIFY_REG(tmpccer, TIM_CCER_CC2NP, TIM_OCInitStruct->OCNPolarity << 6U);
 8001268:	6955      	ldr	r5, [r2, #20]
 800126a:	f023 0380 	bic.w	r3, r3, #128	; 0x80
 800126e:	ea43 1385 	orr.w	r3, r3, r5, lsl #6
    MODIFY_REG(tmpccer, TIM_CCER_CC2NE, TIM_OCInitStruct->OCNState << 6U);
 8001272:	6895      	ldr	r5, [r2, #8]
 8001274:	f023 0340 	bic.w	r3, r3, #64	; 0x40
 8001278:	ea43 1385 	orr.w	r3, r3, r5, lsl #6
    MODIFY_REG(tmpcr2, TIM_CR2_OIS2, TIM_OCInitStruct->OCIdleState << 2U);
 800127c:	6995      	ldr	r5, [r2, #24]
 800127e:	f421 6180 	bic.w	r1, r1, #1024	; 0x400
 8001282:	ea41 0185 	orr.w	r1, r1, r5, lsl #2
    MODIFY_REG(tmpcr2, TIM_CR2_OIS2N, TIM_OCInitStruct->OCNIdleState << 3U);
 8001286:	69d5      	ldr	r5, [r2, #28]
 8001288:	f421 6100 	bic.w	r1, r1, #2048	; 0x800
 800128c:	ea41 01c5 	orr.w	r1, r1, r5, lsl #3
  LL_TIM_OC_SetCompareCH2(TIMx, TIM_OCInitStruct->CompareValue);
 8001290:	68d2      	ldr	r2, [r2, #12]
  LL_TIM_WriteReg(TIMx, CR2, tmpcr2);
 8001292:	6041      	str	r1, [r0, #4]
  LL_TIM_WriteReg(TIMx, CCMR1, tmpccmr1);
 8001294:	6184      	str	r4, [r0, #24]
  WRITE_REG(TIMx->CCR2, CompareValue);
 8001296:	6382      	str	r2, [r0, #56]	; 0x38
 8001298:	e7ca      	b.n	8001230 <LL_TIM_OC_Init+0xc0>
  CLEAR_BIT(TIMx->CCER, TIM_CCER_CC3E);
 800129a:	6a03      	ldr	r3, [r0, #32]
  MODIFY_REG(tmpccmr2, TIM_CCMR2_OC3M, TIM_OCInitStruct->OCMode);
 800129c:	6815      	ldr	r5, [r2, #0]
  CLEAR_BIT(TIMx->CCER, TIM_CCER_CC3E);
 800129e:	f423 7380 	bic.w	r3, r3, #256	; 0x100
 80012a2:	6203      	str	r3, [r0, #32]
  tmpccer =  LL_TIM_ReadReg(TIMx, CCER);
 80012a4:	6a03      	ldr	r3, [r0, #32]
  tmpcr2 = LL_TIM_ReadReg(TIMx, CR2);
 80012a6:	6841      	ldr	r1, [r0, #4]
  tmpccmr2 = LL_TIM_ReadReg(TIMx, CCMR2);
 80012a8:	69c4      	ldr	r4, [r0, #28]
  MODIFY_REG(tmpccer, TIM_CCER_CC3P, TIM_OCInitStruct->OCPolarity << 8U);
 80012aa:	f423 7300 	bic.w	r3, r3, #512	; 0x200
  MODIFY_REG(tmpccmr2, TIM_CCMR2_OC3M, TIM_OCInitStruct->OCMode);
 80012ae:	f024 0473 	bic.w	r4, r4, #115	; 0x73
 80012b2:	432c      	orrs	r4, r5
  MODIFY_REG(tmpccer, TIM_CCER_CC3P, TIM_OCInitStruct->OCPolarity << 8U);
 80012b4:	6915      	ldr	r5, [r2, #16]
 80012b6:	ea43 2305 	orr.w	r3, r3, r5, lsl #8
  MODIFY_REG(tmpccer, TIM_CCER_CC3E, TIM_OCInitStruct->OCState << 8U);
 80012ba:	6855      	ldr	r5, [r2, #4]
 80012bc:	f423 7380 	bic.w	r3, r3, #256	; 0x100
 80012c0:	ea43 2305 	orr.w	r3, r3, r5, lsl #8
  if (IS_TIM_BREAK_INSTANCE(TIMx))
 80012c4:	4d0d      	ldr	r5, [pc, #52]	; (80012fc <LL_TIM_OC_Init+0x18c>)
 80012c6:	42a8      	cmp	r0, r5
 80012c8:	d113      	bne.n	80012f2 <LL_TIM_OC_Init+0x182>
    MODIFY_REG(tmpccer, TIM_CCER_CC3NP, TIM_OCInitStruct->OCNPolarity << 10U);
 80012ca:	6955      	ldr	r5, [r2, #20]
 80012cc:	f423 6300 	bic.w	r3, r3, #2048	; 0x800
 80012d0:	ea43 2385 	orr.w	r3, r3, r5, lsl #10
    MODIFY_REG(tmpccer, TIM_CCER_CC3NE, TIM_OCInitStruct->OCNState << 10U);
 80012d4:	6895      	ldr	r5, [r2, #8]
 80012d6:	f423 6380 	bic.w	r3, r3, #1024	; 0x400
 80012da:	ea43 2385 	orr.w	r3, r3, r5, lsl #10
    MODIFY_REG(tmpcr2, TIM_CR2_OIS3, TIM_OCInitStruct->OCIdleState << 4U);
 80012de:	6995      	ldr	r5, [r2, #24]
 80012e0:	f421 5180 	bic.w	r1, r1, #4096	; 0x1000
 80012e4:	ea41 1105 	orr.w	r1, r1, r5, lsl #4
    MODIFY_REG(tmpcr2, TIM_CR2_OIS3N, TIM_OCInitStruct->OCNIdleState << 5U);
 80012e8:	69d5      	ldr	r5, [r2, #28]
 80012ea:	f421 5100 	bic.w	r1, r1, #8192	; 0x2000
 80012ee:	ea41 1145 	orr.w	r1, r1, r5, lsl #5
  LL_TIM_OC_SetCompareCH3(TIMx, TIM_OCInitStruct->CompareValue);
 80012f2:	68d2      	ldr	r2, [r2, #12]
  LL_TIM_WriteReg(TIMx, CR2, tmpcr2);
 80012f4:	6041      	str	r1, [r0, #4]
  LL_TIM_WriteReg(TIMx, CCMR2, tmpccmr2);
 80012f6:	61c4      	str	r4, [r0, #28]
  WRITE_REG(TIMx->CCR3, CompareValue);
 80012f8:	63c2      	str	r2, [r0, #60]	; 0x3c
 80012fa:	e799      	b.n	8001230 <LL_TIM_OC_Init+0xc0>
 80012fc:	40012c00 	.word	0x40012c00

08001300 <LL_USART_Init>:
  * @retval An ErrorStatus enumeration value:
  *          - SUCCESS: USART registers are initialized according to USART_InitStruct content
  *          - ERROR: Problem occurred during USART Registers initialization
  */
ErrorStatus LL_USART_Init(USART_TypeDef *USARTx, LL_USART_InitTypeDef *USART_InitStruct)
{
 8001300:	b530      	push	{r4, r5, lr}
  * @param  USARTx USART Instance
  * @retval State of bit (1 or 0).
  */
__STATIC_INLINE uint32_t LL_USART_IsEnabled(USART_TypeDef *USARTx)
{
  return (READ_BIT(USARTx->CR1, USART_CR1_UE) == (USART_CR1_UE));
 8001302:	68c3      	ldr	r3, [r0, #12]
 8001304:	b085      	sub	sp, #20
  assert_param(IS_LL_USART_OVERSAMPLING(USART_InitStruct->OverSampling));
#endif /* USART_OverSampling_Feature */

  /* USART needs to be in disabled state, in order to be able to configure some bits in
     CRx registers */
  if (LL_USART_IsEnabled(USARTx) == 0U)
 8001306:	049b      	lsls	r3, r3, #18
{
 8001308:	4604      	mov	r4, r0
 800130a:	460d      	mov	r5, r1
  if (LL_USART_IsEnabled(USARTx) == 0U)
 800130c:	d502      	bpl.n	8001314 <LL_USART_Init+0x14>
  ErrorStatus status = ERROR;
 800130e:	2000      	movs	r0, #0
    }
  }
  /* Endif (=> USART not in Disabled state => return ERROR) */

  return (status);
}
 8001310:	b005      	add	sp, #20
 8001312:	bd30      	pop	{r4, r5, pc}
    MODIFY_REG(USARTx->CR1,
 8001314:	684b      	ldr	r3, [r1, #4]
 8001316:	68c9      	ldr	r1, [r1, #12]
 8001318:	68c2      	ldr	r2, [r0, #12]
 800131a:	430b      	orrs	r3, r1
 800131c:	6929      	ldr	r1, [r5, #16]
 800131e:	f422 52b0 	bic.w	r2, r2, #5632	; 0x1600
 8001322:	430b      	orrs	r3, r1
 8001324:	f022 020c 	bic.w	r2, r2, #12
 8001328:	4313      	orrs	r3, r2
 800132a:	60c3      	str	r3, [r0, #12]
  *         @arg @ref LL_USART_STOPBITS_2
  * @retval None
  */
__STATIC_INLINE void LL_USART_SetStopBitsLength(USART_TypeDef *USARTx, uint32_t StopBits)
{
  MODIFY_REG(USARTx->CR2, USART_CR2_STOP, StopBits);
 800132c:	6903      	ldr	r3, [r0, #16]
 800132e:	68aa      	ldr	r2, [r5, #8]
 8001330:	f423 5340 	bic.w	r3, r3, #12288	; 0x3000
 8001334:	4313      	orrs	r3, r2
 8001336:	6103      	str	r3, [r0, #16]
  *         @arg @ref LL_USART_HWCONTROL_RTS_CTS
  * @retval None
  */
__STATIC_INLINE void LL_USART_SetHWFlowCtrl(USART_TypeDef *USARTx, uint32_t HardwareFlowControl)
{
  MODIFY_REG(USARTx->CR3, USART_CR3_RTSE | USART_CR3_CTSE, HardwareFlowControl);
 8001338:	6943      	ldr	r3, [r0, #20]
 800133a:	696a      	ldr	r2, [r5, #20]
 800133c:	f423 7340 	bic.w	r3, r3, #768	; 0x300
 8001340:	4313      	orrs	r3, r2
 8001342:	6143      	str	r3, [r0, #20]
    LL_RCC_GetSystemClocksFreq(&rcc_clocks);
 8001344:	4668      	mov	r0, sp
 8001346:	f7ff fecb 	bl	80010e0 <LL_RCC_GetSystemClocksFreq>
    if (USARTx == USART1)
 800134a:	4b13      	ldr	r3, [pc, #76]	; (8001398 <LL_USART_Init+0x98>)
 800134c:	429c      	cmp	r4, r3
 800134e:	d119      	bne.n	8001384 <LL_USART_Init+0x84>
      periphclk = rcc_clocks.PCLK2_Frequency;
 8001350:	9903      	ldr	r1, [sp, #12]
    if ((periphclk != LL_RCC_PERIPH_FREQUENCY_NO)
 8001352:	2900      	cmp	r1, #0
 8001354:	d0db      	beq.n	800130e <LL_USART_Init+0xe>
        && (USART_InitStruct->BaudRate != 0U))
 8001356:	682a      	ldr	r2, [r5, #0]
 8001358:	2a00      	cmp	r2, #0
 800135a:	d0d8      	beq.n	800130e <LL_USART_Init+0xe>
  * @param  BaudRate Baud Rate
  * @retval None
  */
__STATIC_INLINE void LL_USART_SetBaudRate(USART_TypeDef *USARTx, uint32_t PeriphClk, uint32_t BaudRate)
{
    USARTx->BRR = (uint16_t)(__LL_USART_DIV_SAMPLING16(PeriphClk, BaudRate));
 800135c:	2319      	movs	r3, #25
 800135e:	434b      	muls	r3, r1
 8001360:	0092      	lsls	r2, r2, #2
 8001362:	fbb3 f3f2 	udiv	r3, r3, r2
 8001366:	2264      	movs	r2, #100	; 0x64
 8001368:	fbb3 f1f2 	udiv	r1, r3, r2
 800136c:	fb02 3311 	mls	r3, r2, r1, r3
 8001370:	011b      	lsls	r3, r3, #4
 8001372:	3332      	adds	r3, #50	; 0x32
 8001374:	fbb3 f3f2 	udiv	r3, r3, r2
 8001378:	eb03 1301 	add.w	r3, r3, r1, lsl #4
 800137c:	b29b      	uxth	r3, r3
 800137e:	60a3      	str	r3, [r4, #8]
      status = SUCCESS;
 8001380:	2001      	movs	r0, #1
 8001382:	e7c5      	b.n	8001310 <LL_USART_Init+0x10>
    else if (USARTx == USART2)
 8001384:	4b05      	ldr	r3, [pc, #20]	; (800139c <LL_USART_Init+0x9c>)
 8001386:	429c      	cmp	r4, r3
 8001388:	d101      	bne.n	800138e <LL_USART_Init+0x8e>
      periphclk = rcc_clocks.PCLK1_Frequency;
 800138a:	9902      	ldr	r1, [sp, #8]
 800138c:	e7e1      	b.n	8001352 <LL_USART_Init+0x52>
    else if (USARTx == USART3)
 800138e:	4b04      	ldr	r3, [pc, #16]	; (80013a0 <LL_USART_Init+0xa0>)
 8001390:	429c      	cmp	r4, r3
 8001392:	d1bc      	bne.n	800130e <LL_USART_Init+0xe>
 8001394:	e7f9      	b.n	800138a <LL_USART_Init+0x8a>
 8001396:	bf00      	nop
 8001398:	40013800 	.word	0x40013800
 800139c:	40004400 	.word	0x40004400
 80013a0:	40004800 	.word	0x40004800

080013a4 <LL_Init1msTick>:
  * @retval None
  */
__STATIC_INLINE void LL_InitTick(uint32_t HCLKFrequency, uint32_t Ticks)
{
  /* Configure the SysTick to have interrupt in 1ms time base */
  SysTick->LOAD  = (uint32_t)((HCLKFrequency / Ticks) - 1UL);  /* set reload register */
 80013a4:	f44f 737a 	mov.w	r3, #1000	; 0x3e8
 80013a8:	fbb0 f0f3 	udiv	r0, r0, r3
  SysTick->VAL   = 0UL;                                       /* Load the SysTick Counter Value */
 80013ac:	2200      	movs	r2, #0
  SysTick->LOAD  = (uint32_t)((HCLKFrequency / Ticks) - 1UL);  /* set reload register */
 80013ae:	4b03      	ldr	r3, [pc, #12]	; (80013bc <LL_Init1msTick+0x18>)
 80013b0:	3801      	subs	r0, #1
 80013b2:	6058      	str	r0, [r3, #4]
  SysTick->VAL   = 0UL;                                       /* Load the SysTick Counter Value */
 80013b4:	609a      	str	r2, [r3, #8]
  SysTick->CTRL  = SysTick_CTRL_CLKSOURCE_Msk |
 80013b6:	2205      	movs	r2, #5
 80013b8:	601a      	str	r2, [r3, #0]
 80013ba:	4770      	bx	lr
 80013bc:	e000e010 	.word	0xe000e010

080013c0 <LL_mDelay>:
  * @param  Delay specifies the delay time length, in milliseconds.
  * @retval None
  */
void LL_mDelay(uint32_t Delay)
{
  __IO uint32_t  tmp = SysTick->CTRL;  /* Clear the COUNTFLAG first */
 80013c0:	4b08      	ldr	r3, [pc, #32]	; (80013e4 <LL_mDelay+0x24>)
{
 80013c2:	b082      	sub	sp, #8
  __IO uint32_t  tmp = SysTick->CTRL;  /* Clear the COUNTFLAG first */
 80013c4:	681b      	ldr	r3, [r3, #0]
  /* Add this code to indicate that local variable is not used */
  ((void)tmp);

  /* Add a period to guaranty minimum wait */
  if (Delay < LL_MAX_DELAY)
 80013c6:	1c41      	adds	r1, r0, #1
  __IO uint32_t  tmp = SysTick->CTRL;  /* Clear the COUNTFLAG first */
 80013c8:	9301      	str	r3, [sp, #4]
  ((void)tmp);
 80013ca:	9b01      	ldr	r3, [sp, #4]
    Delay++;
  }

  while (Delay)
  {
    if ((SysTick->CTRL & SysTick_CTRL_COUNTFLAG_Msk) != 0U)
 80013cc:	4b05      	ldr	r3, [pc, #20]	; (80013e4 <LL_mDelay+0x24>)
    Delay++;
 80013ce:	bf18      	it	ne
 80013d0:	3001      	addne	r0, #1
  while (Delay)
 80013d2:	b908      	cbnz	r0, 80013d8 <LL_mDelay+0x18>
    {
      Delay--;
    }
  }
}
 80013d4:	b002      	add	sp, #8
 80013d6:	4770      	bx	lr
    if ((SysTick->CTRL & SysTick_CTRL_COUNTFLAG_Msk) != 0U)
 80013d8:	681a      	ldr	r2, [r3, #0]
 80013da:	03d2      	lsls	r2, r2, #15
      Delay--;
 80013dc:	bf48      	it	mi
 80013de:	f100 30ff 	addmi.w	r0, r0, #4294967295
 80013e2:	e7f6      	b.n	80013d2 <LL_mDelay+0x12>
 80013e4:	e000e010 	.word	0xe000e010

080013e8 <LL_SetSystemCoreClock>:
  * @retval None
  */
void LL_SetSystemCoreClock(uint32_t HCLKFrequency)
{
  /* HCLK clock frequency */
  SystemCoreClock = HCLKFrequency;
 80013e8:	4b01      	ldr	r3, [pc, #4]	; (80013f0 <LL_SetSystemCoreClock+0x8>)
 80013ea:	6018      	str	r0, [r3, #0]
 80013ec:	4770      	bx	lr
 80013ee:	bf00      	nop
 80013f0:	20000010 	.word	0x20000010

080013f4 <osKernelStart>:
* @param  argument      pointer that is passed to the thread function as start argument.
* @retval status code that indicates the execution status of the function
* @note   MUST REMAIN UNCHANGED: \b osKernelStart shall be consistent in every CMSIS-RTOS.
*/
osStatus osKernelStart (void)
{
 80013f4:	b508      	push	{r3, lr}
  vTaskStartScheduler();
 80013f6:	f000 fe0d 	bl	8002014 <vTaskStartScheduler>
  
  return osOK;
}
 80013fa:	2000      	movs	r0, #0
 80013fc:	bd08      	pop	{r3, pc}

080013fe <osThreadCreate>:
* @param  argument      pointer that is passed to the thread function as start argument.
* @retval thread ID for reference by other functions or NULL in case of error.
* @note   MUST REMAIN UNCHANGED: \b osThreadCreate shall be consistent in every CMSIS-RTOS.
*/
osThreadId osThreadCreate (const osThreadDef_t *thread_def, void *argument)
{
 80013fe:	b530      	push	{r4, r5, lr}

    handle = xTaskCreateStatic((TaskFunction_t)thread_def->pthread,(const portCHAR *)thread_def->name,
              thread_def->stacksize, argument, makeFreeRtosPriority(thread_def->tpriority),
              thread_def->buffer, thread_def->controlblock);
#else
  if (xTaskCreate((TaskFunction_t)thread_def->pthread,(const portCHAR *)thread_def->name,
 8001400:	f9b0 4008 	ldrsh.w	r4, [r0, #8]
{
 8001404:	b085      	sub	sp, #20
  if (priority != osPriorityError) {
 8001406:	2c84      	cmp	r4, #132	; 0x84
  unsigned portBASE_TYPE fpriority = tskIDLE_PRIORITY;
 8001408:	bf08      	it	eq
 800140a:	2400      	moveq	r4, #0
  if (xTaskCreate((TaskFunction_t)thread_def->pthread,(const portCHAR *)thread_def->name,
 800140c:	8a02      	ldrh	r2, [r0, #16]
    fpriority += (priority - osPriorityIdle);
 800140e:	bf18      	it	ne
 8001410:	3403      	addne	r4, #3
{
 8001412:	460b      	mov	r3, r1
  if (xTaskCreate((TaskFunction_t)thread_def->pthread,(const portCHAR *)thread_def->name,
 8001414:	e890 0022 	ldmia.w	r0, {r1, r5}
 8001418:	a803      	add	r0, sp, #12
 800141a:	9001      	str	r0, [sp, #4]
 800141c:	9400      	str	r4, [sp, #0]
 800141e:	4628      	mov	r0, r5
 8001420:	f000 fd28 	bl	8001e74 <xTaskCreate>
 8001424:	2801      	cmp	r0, #1
                   thread_def->stacksize, argument, makeFreeRtosPriority(thread_def->tpriority),
                   &handle) != pdPASS)  {
    return NULL;
 8001426:	bf14      	ite	ne
 8001428:	2000      	movne	r0, #0
  }     
#endif
  
  return handle;
 800142a:	9803      	ldreq	r0, [sp, #12]
}
 800142c:	b005      	add	sp, #20
 800142e:	bd30      	pop	{r4, r5, pc}

08001430 <osDelay>:
* @brief   Wait for Timeout (Time Delay)
* @param   millisec      time delay value
* @retval  status code that indicates the execution status of the function.
*/
osStatus osDelay (uint32_t millisec)
{
 8001430:	b508      	push	{r3, lr}
#if INCLUDE_vTaskDelay
  TickType_t ticks = millisec / portTICK_PERIOD_MS;
  
  vTaskDelay(ticks ? ticks : 1);          /* Minimum delay = 1 tick */
 8001432:	2800      	cmp	r0, #0
 8001434:	bf08      	it	eq
 8001436:	2001      	moveq	r0, #1
 8001438:	f000 ff3a 	bl	80022b0 <vTaskDelay>
#else
  (void) millisec;
  
  return osErrorResource;
#endif
}
 800143c:	2000      	movs	r0, #0
 800143e:	bd08      	pop	{r3, pc}

08001440 <vListInitialise>:
void vListInitialise( List_t * const pxList )
{
	/* The list structure contains a list item which is used to mark the
	end of the list.  To initialise the list the list end is inserted
	as the only list entry. */
	pxList->pxIndex = ( ListItem_t * ) &( pxList->xListEnd );			/*lint !e826 !e740 The mini list structure is used as the list end to save RAM.  This is checked and valid. */
 8001440:	f100 0308 	add.w	r3, r0, #8
 8001444:	6043      	str	r3, [r0, #4]

	/* The list end value is the highest possible value in the list to
	ensure it remains at the end of the list. */
	pxList->xListEnd.xItemValue = portMAX_DELAY;
 8001446:	f04f 32ff 	mov.w	r2, #4294967295

	/* The list end next and previous pointers point to itself so we know
	when the list is empty. */
	pxList->xListEnd.pxNext = ( ListItem_t * ) &( pxList->xListEnd );	/*lint !e826 !e740 The mini list structure is used as the list end to save RAM.  This is checked and valid. */
 800144a:	60c3      	str	r3, [r0, #12]
	pxList->xListEnd.pxPrevious = ( ListItem_t * ) &( pxList->xListEnd );/*lint !e826 !e740 The mini list structure is used as the list end to save RAM.  This is checked and valid. */
 800144c:	6103      	str	r3, [r0, #16]

	pxList->uxNumberOfItems = ( UBaseType_t ) 0U;
 800144e:	2300      	movs	r3, #0
	pxList->xListEnd.xItemValue = portMAX_DELAY;
 8001450:	6082      	str	r2, [r0, #8]
	pxList->uxNumberOfItems = ( UBaseType_t ) 0U;
 8001452:	6003      	str	r3, [r0, #0]
 8001454:	4770      	bx	lr

08001456 <vListInitialiseItem>:
/*-----------------------------------------------------------*/

void vListInitialiseItem( ListItem_t * const pxItem )
{
	/* Make sure the list item is not recorded as being on a list. */
	pxItem->pvContainer = NULL;
 8001456:	2300      	movs	r3, #0
 8001458:	6103      	str	r3, [r0, #16]
 800145a:	4770      	bx	lr

0800145c <vListInsertEnd>:
}
/*-----------------------------------------------------------*/

void vListInsertEnd( List_t * const pxList, ListItem_t * const pxNewListItem )
{
ListItem_t * const pxIndex = pxList->pxIndex;
 800145c:	6843      	ldr	r3, [r0, #4]

	/* Insert a new list item into pxList, but rather than sort the list,
	makes the new list item the last item to be removed by a call to
	listGET_OWNER_OF_NEXT_ENTRY(). */
	pxNewListItem->pxNext = pxIndex;
	pxNewListItem->pxPrevious = pxIndex->pxPrevious;
 800145e:	689a      	ldr	r2, [r3, #8]
	pxNewListItem->pxNext = pxIndex;
 8001460:	604b      	str	r3, [r1, #4]
	pxNewListItem->pxPrevious = pxIndex->pxPrevious;
 8001462:	608a      	str	r2, [r1, #8]

	/* Only used during decision coverage testing. */
	mtCOVERAGE_TEST_DELAY();

	pxIndex->pxPrevious->pxNext = pxNewListItem;
 8001464:	689a      	ldr	r2, [r3, #8]
 8001466:	6051      	str	r1, [r2, #4]
	pxIndex->pxPrevious = pxNewListItem;
 8001468:	6099      	str	r1, [r3, #8]

	/* Remember which list the item is in. */
	pxNewListItem->pvContainer = ( void * ) pxList;

	( pxList->uxNumberOfItems )++;
 800146a:	6803      	ldr	r3, [r0, #0]
	pxNewListItem->pvContainer = ( void * ) pxList;
 800146c:	6108      	str	r0, [r1, #16]
	( pxList->uxNumberOfItems )++;
 800146e:	3301      	adds	r3, #1
 8001470:	6003      	str	r3, [r0, #0]
 8001472:	4770      	bx	lr

08001474 <vListInsert>:
/*-----------------------------------------------------------*/

void vListInsert( List_t * const pxList, ListItem_t * const pxNewListItem )
{
ListItem_t *pxIterator;
const TickType_t xValueOfInsertion = pxNewListItem->xItemValue;
 8001474:	680a      	ldr	r2, [r1, #0]
{
 8001476:	b530      	push	{r4, r5, lr}
	new list item should be placed after it.  This ensures that TCB's which are
	stored in ready lists (all of which have the same xItemValue value) get a
	share of the CPU.  However, if the xItemValue is the same as the back marker
	the iteration loop below will not end.  Therefore the value is checked
	first, and the algorithm slightly modified if necessary. */
	if( xValueOfInsertion == portMAX_DELAY )
 8001478:	1c53      	adds	r3, r2, #1
 800147a:	d10a      	bne.n	8001492 <vListInsert+0x1e>
	{
		pxIterator = pxList->xListEnd.pxPrevious;
 800147c:	6903      	ldr	r3, [r0, #16]
			/* There is nothing to do here, just iterating to the wanted
			insertion position. */
		}
	}

	pxNewListItem->pxNext = pxIterator->pxNext;
 800147e:	685a      	ldr	r2, [r3, #4]
 8001480:	604a      	str	r2, [r1, #4]
	pxNewListItem->pxNext->pxPrevious = pxNewListItem;
 8001482:	6091      	str	r1, [r2, #8]
	pxNewListItem->pxPrevious = pxIterator;
 8001484:	608b      	str	r3, [r1, #8]
	pxIterator->pxNext = pxNewListItem;
 8001486:	6059      	str	r1, [r3, #4]

	/* Remember which list the item is in.  This allows fast removal of the
	item later. */
	pxNewListItem->pvContainer = ( void * ) pxList;

	( pxList->uxNumberOfItems )++;
 8001488:	6803      	ldr	r3, [r0, #0]
	pxNewListItem->pvContainer = ( void * ) pxList;
 800148a:	6108      	str	r0, [r1, #16]
	( pxList->uxNumberOfItems )++;
 800148c:	3301      	adds	r3, #1
 800148e:	6003      	str	r3, [r0, #0]
 8001490:	bd30      	pop	{r4, r5, pc}
		for( pxIterator = ( ListItem_t * ) &( pxList->xListEnd ); pxIterator->pxNext->xItemValue <= xValueOfInsertion; pxIterator = pxIterator->pxNext ) /*lint !e826 !e740 The mini list structure is used as the list end to save RAM.  This is checked and valid. */
 8001492:	f100 0308 	add.w	r3, r0, #8
 8001496:	685c      	ldr	r4, [r3, #4]
 8001498:	6825      	ldr	r5, [r4, #0]
 800149a:	42aa      	cmp	r2, r5
 800149c:	d3ef      	bcc.n	800147e <vListInsert+0xa>
 800149e:	4623      	mov	r3, r4
 80014a0:	e7f9      	b.n	8001496 <vListInsert+0x22>

080014a2 <uxListRemove>:
{
/* The list item knows which list it is in.  Obtain the list from the list
item. */
List_t * const pxList = ( List_t * ) pxItemToRemove->pvContainer;

	pxItemToRemove->pxNext->pxPrevious = pxItemToRemove->pxPrevious;
 80014a2:	6841      	ldr	r1, [r0, #4]
 80014a4:	6882      	ldr	r2, [r0, #8]
List_t * const pxList = ( List_t * ) pxItemToRemove->pvContainer;
 80014a6:	6903      	ldr	r3, [r0, #16]
	pxItemToRemove->pxNext->pxPrevious = pxItemToRemove->pxPrevious;
 80014a8:	608a      	str	r2, [r1, #8]
	pxItemToRemove->pxPrevious->pxNext = pxItemToRemove->pxNext;
 80014aa:	6882      	ldr	r2, [r0, #8]
 80014ac:	6051      	str	r1, [r2, #4]

	/* Only used during decision coverage testing. */
	mtCOVERAGE_TEST_DELAY();

	/* Make sure the index is left pointing to a valid item. */
	if( pxList->pxIndex == pxItemToRemove )
 80014ae:	6859      	ldr	r1, [r3, #4]
 80014b0:	4288      	cmp	r0, r1
	{
		pxList->pxIndex = pxItemToRemove->pxPrevious;
 80014b2:	bf08      	it	eq
 80014b4:	605a      	streq	r2, [r3, #4]
	else
	{
		mtCOVERAGE_TEST_MARKER();
	}

	pxItemToRemove->pvContainer = NULL;
 80014b6:	2200      	movs	r2, #0
 80014b8:	6102      	str	r2, [r0, #16]
	( pxList->uxNumberOfItems )--;
 80014ba:	6818      	ldr	r0, [r3, #0]
 80014bc:	3801      	subs	r0, #1
 80014be:	6018      	str	r0, [r3, #0]

	return pxList->uxNumberOfItems;
}
 80014c0:	4770      	bx	lr
	...

080014c4 <prvTaskExitError>:
	its caller as there is nothing to return to.  If a task wants to exit it
	should instead call vTaskDelete( NULL ).

	Artificially force an assert() to be triggered if configASSERT() is
	defined, then stop here so application writers can catch the error. */
	configASSERT( uxCriticalNesting == ~0UL );
 80014c4:	4b0a      	ldr	r3, [pc, #40]	; (80014f0 <prvTaskExitError+0x2c>)
 80014c6:	681b      	ldr	r3, [r3, #0]
 80014c8:	3301      	adds	r3, #1
 80014ca:	d008      	beq.n	80014de <prvTaskExitError+0x1a>

portFORCE_INLINE static void vPortRaiseBASEPRI( void )
{
uint32_t ulNewBASEPRI;

	__asm volatile
 80014cc:	f04f 0350 	mov.w	r3, #80	; 0x50
 80014d0:	f383 8811 	msr	BASEPRI, r3
 80014d4:	f3bf 8f6f 	isb	sy
 80014d8:	f3bf 8f4f 	dsb	sy
 80014dc:	e7fe      	b.n	80014dc <prvTaskExitError+0x18>
 80014de:	f04f 0350 	mov.w	r3, #80	; 0x50
 80014e2:	f383 8811 	msr	BASEPRI, r3
 80014e6:	f3bf 8f6f 	isb	sy
 80014ea:	f3bf 8f4f 	dsb	sy
 80014ee:	e7fe      	b.n	80014ee <prvTaskExitError+0x2a>
 80014f0:	2000000c 	.word	0x2000000c

080014f4 <prvPortStartFirstTask>:
}
/*-----------------------------------------------------------*/

static void prvPortStartFirstTask( void )
{
	__asm volatile(
 80014f4:	4806      	ldr	r0, [pc, #24]	; (8001510 <prvPortStartFirstTask+0x1c>)
 80014f6:	6800      	ldr	r0, [r0, #0]
 80014f8:	6800      	ldr	r0, [r0, #0]
 80014fa:	f380 8808 	msr	MSP, r0
 80014fe:	b662      	cpsie	i
 8001500:	b661      	cpsie	f
 8001502:	f3bf 8f4f 	dsb	sy
 8001506:	f3bf 8f6f 	isb	sy
 800150a:	df00      	svc	0
 800150c:	bf00      	nop
 800150e:	0000      	.short	0x0000
 8001510:	e000ed08 	.word	0xe000ed08

08001514 <pxPortInitialiseStack>:
	*pxTopOfStack = portINITIAL_XPSR;	/* xPSR */
 8001514:	f04f 7380 	mov.w	r3, #16777216	; 0x1000000
 8001518:	f840 3c04 	str.w	r3, [r0, #-4]
	*pxTopOfStack = ( StackType_t ) portTASK_RETURN_ADDRESS;	/* LR */
 800151c:	4b05      	ldr	r3, [pc, #20]	; (8001534 <pxPortInitialiseStack+0x20>)
	*pxTopOfStack = ( ( StackType_t ) pxCode ) & portSTART_ADDRESS_MASK;	/* PC */
 800151e:	f021 0101 	bic.w	r1, r1, #1
 8001522:	f840 1c08 	str.w	r1, [r0, #-8]
	*pxTopOfStack = ( StackType_t ) portTASK_RETURN_ADDRESS;	/* LR */
 8001526:	f840 3c0c 	str.w	r3, [r0, #-12]
	*pxTopOfStack = ( StackType_t ) pvParameters;	/* R0 */
 800152a:	f840 2c20 	str.w	r2, [r0, #-32]
}
 800152e:	3840      	subs	r0, #64	; 0x40
 8001530:	4770      	bx	lr
 8001532:	bf00      	nop
 8001534:	080014c5 	.word	0x080014c5
	...

08001540 <SVC_Handler>:
	__asm volatile (
 8001540:	4b07      	ldr	r3, [pc, #28]	; (8001560 <pxCurrentTCBConst2>)
 8001542:	6819      	ldr	r1, [r3, #0]
 8001544:	6808      	ldr	r0, [r1, #0]
 8001546:	e8b0 0ff0 	ldmia.w	r0!, {r4, r5, r6, r7, r8, r9, sl, fp}
 800154a:	f380 8809 	msr	PSP, r0
 800154e:	f3bf 8f6f 	isb	sy
 8001552:	f04f 0000 	mov.w	r0, #0
 8001556:	f380 8811 	msr	BASEPRI, r0
 800155a:	f04e 0e0d 	orr.w	lr, lr, #13
 800155e:	4770      	bx	lr

08001560 <pxCurrentTCBConst2>:
 8001560:	20001228 	.word	0x20001228

08001564 <vPortEnterCritical>:
 8001564:	f04f 0350 	mov.w	r3, #80	; 0x50
 8001568:	f383 8811 	msr	BASEPRI, r3
 800156c:	f3bf 8f6f 	isb	sy
 8001570:	f3bf 8f4f 	dsb	sy
/*-----------------------------------------------------------*/

void vPortEnterCritical( void )
{
	portDISABLE_INTERRUPTS();
	uxCriticalNesting++;
 8001574:	4a0a      	ldr	r2, [pc, #40]	; (80015a0 <vPortEnterCritical+0x3c>)
 8001576:	6813      	ldr	r3, [r2, #0]
 8001578:	3301      	adds	r3, #1
	/* This is not the interrupt safe version of the enter critical function so
	assert() if it is being called from an interrupt context.  Only API
	functions that end in "FromISR" can be used in an interrupt.  Only assert if
	the critical nesting count is 1 to protect against recursive calls if the
	assert function also uses a critical section. */
	if( uxCriticalNesting == 1 )
 800157a:	2b01      	cmp	r3, #1
	uxCriticalNesting++;
 800157c:	6013      	str	r3, [r2, #0]
	if( uxCriticalNesting == 1 )
 800157e:	d10d      	bne.n	800159c <vPortEnterCritical+0x38>
	{
		configASSERT( ( portNVIC_INT_CTRL_REG & portVECTACTIVE_MASK ) == 0 );
 8001580:	4b08      	ldr	r3, [pc, #32]	; (80015a4 <vPortEnterCritical+0x40>)
 8001582:	681b      	ldr	r3, [r3, #0]
 8001584:	f013 0fff 	tst.w	r3, #255	; 0xff
 8001588:	d008      	beq.n	800159c <vPortEnterCritical+0x38>
 800158a:	f04f 0350 	mov.w	r3, #80	; 0x50
 800158e:	f383 8811 	msr	BASEPRI, r3
 8001592:	f3bf 8f6f 	isb	sy
 8001596:	f3bf 8f4f 	dsb	sy
 800159a:	e7fe      	b.n	800159a <vPortEnterCritical+0x36>
 800159c:	4770      	bx	lr
 800159e:	bf00      	nop
 80015a0:	2000000c 	.word	0x2000000c
 80015a4:	e000ed04 	.word	0xe000ed04

080015a8 <vPortExitCritical>:
}
/*-----------------------------------------------------------*/

void vPortExitCritical( void )
{
	configASSERT( uxCriticalNesting );
 80015a8:	4a08      	ldr	r2, [pc, #32]	; (80015cc <vPortExitCritical+0x24>)
 80015aa:	6813      	ldr	r3, [r2, #0]
 80015ac:	b943      	cbnz	r3, 80015c0 <vPortExitCritical+0x18>
 80015ae:	f04f 0350 	mov.w	r3, #80	; 0x50
 80015b2:	f383 8811 	msr	BASEPRI, r3
 80015b6:	f3bf 8f6f 	isb	sy
 80015ba:	f3bf 8f4f 	dsb	sy
 80015be:	e7fe      	b.n	80015be <vPortExitCritical+0x16>
	uxCriticalNesting--;
 80015c0:	3b01      	subs	r3, #1
 80015c2:	6013      	str	r3, [r2, #0]
	if( uxCriticalNesting == 0 )
 80015c4:	b90b      	cbnz	r3, 80015ca <vPortExitCritical+0x22>
}
/*-----------------------------------------------------------*/

portFORCE_INLINE static void vPortSetBASEPRI( uint32_t ulNewMaskValue )
{
	__asm volatile
 80015c6:	f383 8811 	msr	BASEPRI, r3
 80015ca:	4770      	bx	lr
 80015cc:	2000000c 	.word	0x2000000c

080015d0 <PendSV_Handler>:

void xPortPendSVHandler( void )
{
	/* This is a naked function. */

	__asm volatile
 80015d0:	f3ef 8009 	mrs	r0, PSP
 80015d4:	f3bf 8f6f 	isb	sy
 80015d8:	4b0d      	ldr	r3, [pc, #52]	; (8001610 <pxCurrentTCBConst>)
 80015da:	681a      	ldr	r2, [r3, #0]
 80015dc:	e920 0ff0 	stmdb	r0!, {r4, r5, r6, r7, r8, r9, sl, fp}
 80015e0:	6010      	str	r0, [r2, #0]
 80015e2:	e92d 4008 	stmdb	sp!, {r3, lr}
 80015e6:	f04f 0050 	mov.w	r0, #80	; 0x50
 80015ea:	f380 8811 	msr	BASEPRI, r0
 80015ee:	f000 febd 	bl	800236c <vTaskSwitchContext>
 80015f2:	f04f 0000 	mov.w	r0, #0
 80015f6:	f380 8811 	msr	BASEPRI, r0
 80015fa:	e8bd 4008 	ldmia.w	sp!, {r3, lr}
 80015fe:	6819      	ldr	r1, [r3, #0]
 8001600:	6808      	ldr	r0, [r1, #0]
 8001602:	e8b0 0ff0 	ldmia.w	r0!, {r4, r5, r6, r7, r8, r9, sl, fp}
 8001606:	f380 8809 	msr	PSP, r0
 800160a:	f3bf 8f6f 	isb	sy
 800160e:	4770      	bx	lr

08001610 <pxCurrentTCBConst>:
 8001610:	20001228 	.word	0x20001228

08001614 <SysTick_Handler>:
	);
}
/*-----------------------------------------------------------*/

void xPortSysTickHandler( void )
{
 8001614:	b508      	push	{r3, lr}
	__asm volatile
 8001616:	f04f 0350 	mov.w	r3, #80	; 0x50
 800161a:	f383 8811 	msr	BASEPRI, r3
 800161e:	f3bf 8f6f 	isb	sy
 8001622:	f3bf 8f4f 	dsb	sy
	save and then restore the interrupt mask value as its value is already
	known. */
	portDISABLE_INTERRUPTS();
	{
		/* Increment the RTOS tick. */
		if( xTaskIncrementTick() != pdFALSE )
 8001626:	f000 fd39 	bl	800209c <xTaskIncrementTick>
 800162a:	b118      	cbz	r0, 8001634 <SysTick_Handler+0x20>
		{
			/* A context switch is required.  Context switching is performed in
			the PendSV interrupt.  Pend the PendSV interrupt. */
			portNVIC_INT_CTRL_REG = portNVIC_PENDSVSET_BIT;
 800162c:	f04f 5280 	mov.w	r2, #268435456	; 0x10000000
 8001630:	4b02      	ldr	r3, [pc, #8]	; (800163c <SysTick_Handler+0x28>)
 8001632:	601a      	str	r2, [r3, #0]
	__asm volatile
 8001634:	2300      	movs	r3, #0
 8001636:	f383 8811 	msr	BASEPRI, r3
 800163a:	bd08      	pop	{r3, pc}
 800163c:	e000ed04 	.word	0xe000ed04

08001640 <vPortSetupTimerInterrupt>:
		ulStoppedTimerCompensation = portMISSED_COUNTS_FACTOR / ( configCPU_CLOCK_HZ / configSYSTICK_CLOCK_HZ );
	}
	#endif /* configUSE_TICKLESS_IDLE */

	/* Configure SysTick to interrupt at the requested rate. */
	portNVIC_SYSTICK_LOAD_REG = ( configSYSTICK_CLOCK_HZ / configTICK_RATE_HZ ) - 1UL;
 8001640:	f44f 727a 	mov.w	r2, #1000	; 0x3e8
 8001644:	4b05      	ldr	r3, [pc, #20]	; (800165c <vPortSetupTimerInterrupt+0x1c>)
 8001646:	681b      	ldr	r3, [r3, #0]
 8001648:	fbb3 f3f2 	udiv	r3, r3, r2
 800164c:	4a04      	ldr	r2, [pc, #16]	; (8001660 <vPortSetupTimerInterrupt+0x20>)
 800164e:	3b01      	subs	r3, #1
 8001650:	6013      	str	r3, [r2, #0]
	portNVIC_SYSTICK_CTRL_REG = ( portNVIC_SYSTICK_CLK_BIT | portNVIC_SYSTICK_INT_BIT | portNVIC_SYSTICK_ENABLE_BIT );
 8001652:	2207      	movs	r2, #7
 8001654:	4b03      	ldr	r3, [pc, #12]	; (8001664 <vPortSetupTimerInterrupt+0x24>)
 8001656:	601a      	str	r2, [r3, #0]
 8001658:	4770      	bx	lr
 800165a:	bf00      	nop
 800165c:	20000010 	.word	0x20000010
 8001660:	e000e014 	.word	0xe000e014
 8001664:	e000e010 	.word	0xe000e010

08001668 <xPortStartScheduler>:
{
 8001668:	b513      	push	{r0, r1, r4, lr}
		ulOriginalPriority = *pucFirstUserPriorityRegister;
 800166a:	4b1f      	ldr	r3, [pc, #124]	; (80016e8 <xPortStartScheduler+0x80>)
		while( ( ucMaxPriorityValue & portTOP_BIT_OF_BYTE ) == portTOP_BIT_OF_BYTE )
 800166c:	2100      	movs	r1, #0
		ulOriginalPriority = *pucFirstUserPriorityRegister;
 800166e:	781a      	ldrb	r2, [r3, #0]
 8001670:	b2d2      	uxtb	r2, r2
 8001672:	9201      	str	r2, [sp, #4]
		*pucFirstUserPriorityRegister = portMAX_8_BIT_VALUE;
 8001674:	22ff      	movs	r2, #255	; 0xff
 8001676:	701a      	strb	r2, [r3, #0]
		ucMaxPriorityValue = *pucFirstUserPriorityRegister;
 8001678:	781b      	ldrb	r3, [r3, #0]
		ucMaxSysCallPriority = configMAX_SYSCALL_INTERRUPT_PRIORITY & ucMaxPriorityValue;
 800167a:	4a1c      	ldr	r2, [pc, #112]	; (80016ec <xPortStartScheduler+0x84>)
		ucMaxPriorityValue = *pucFirstUserPriorityRegister;
 800167c:	b2db      	uxtb	r3, r3
 800167e:	f88d 3003 	strb.w	r3, [sp, #3]
		ucMaxSysCallPriority = configMAX_SYSCALL_INTERRUPT_PRIORITY & ucMaxPriorityValue;
 8001682:	f89d 3003 	ldrb.w	r3, [sp, #3]
 8001686:	f003 0350 	and.w	r3, r3, #80	; 0x50
 800168a:	7013      	strb	r3, [r2, #0]
		ulMaxPRIGROUPValue = portMAX_PRIGROUP_BITS;
 800168c:	2207      	movs	r2, #7
 800168e:	4b18      	ldr	r3, [pc, #96]	; (80016f0 <xPortStartScheduler+0x88>)
 8001690:	601a      	str	r2, [r3, #0]
		while( ( ucMaxPriorityValue & portTOP_BIT_OF_BYTE ) == portTOP_BIT_OF_BYTE )
 8001692:	f89d 0003 	ldrb.w	r0, [sp, #3]
 8001696:	1e54      	subs	r4, r2, #1
 8001698:	0600      	lsls	r0, r0, #24
 800169a:	d41c      	bmi.n	80016d6 <xPortStartScheduler+0x6e>
 800169c:	b101      	cbz	r1, 80016a0 <xPortStartScheduler+0x38>
 800169e:	601a      	str	r2, [r3, #0]
		ulMaxPRIGROUPValue <<= portPRIGROUP_SHIFT;
 80016a0:	681a      	ldr	r2, [r3, #0]
 80016a2:	0212      	lsls	r2, r2, #8
		ulMaxPRIGROUPValue &= portPRIORITY_GROUP_MASK;
 80016a4:	f402 62e0 	and.w	r2, r2, #1792	; 0x700
 80016a8:	601a      	str	r2, [r3, #0]
		*pucFirstUserPriorityRegister = ulOriginalPriority;
 80016aa:	9b01      	ldr	r3, [sp, #4]
 80016ac:	4a0e      	ldr	r2, [pc, #56]	; (80016e8 <xPortStartScheduler+0x80>)
 80016ae:	b2db      	uxtb	r3, r3
 80016b0:	7013      	strb	r3, [r2, #0]
	portNVIC_SYSPRI2_REG |= portNVIC_PENDSV_PRI;
 80016b2:	4b10      	ldr	r3, [pc, #64]	; (80016f4 <xPortStartScheduler+0x8c>)
 80016b4:	681a      	ldr	r2, [r3, #0]
 80016b6:	f442 0270 	orr.w	r2, r2, #15728640	; 0xf00000
 80016ba:	601a      	str	r2, [r3, #0]
	portNVIC_SYSPRI2_REG |= portNVIC_SYSTICK_PRI;
 80016bc:	681a      	ldr	r2, [r3, #0]
 80016be:	f042 4270 	orr.w	r2, r2, #4026531840	; 0xf0000000
 80016c2:	601a      	str	r2, [r3, #0]
	vPortSetupTimerInterrupt();
 80016c4:	f7ff ffbc 	bl	8001640 <vPortSetupTimerInterrupt>
	uxCriticalNesting = 0;
 80016c8:	2200      	movs	r2, #0
 80016ca:	4b0b      	ldr	r3, [pc, #44]	; (80016f8 <xPortStartScheduler+0x90>)
 80016cc:	601a      	str	r2, [r3, #0]
	prvPortStartFirstTask();
 80016ce:	f7ff ff11 	bl	80014f4 <prvPortStartFirstTask>
	prvTaskExitError();
 80016d2:	f7ff fef7 	bl	80014c4 <prvTaskExitError>
			ucMaxPriorityValue <<= ( uint8_t ) 0x01;
 80016d6:	f89d 2003 	ldrb.w	r2, [sp, #3]
 80016da:	2101      	movs	r1, #1
 80016dc:	0052      	lsls	r2, r2, #1
 80016de:	b2d2      	uxtb	r2, r2
 80016e0:	f88d 2003 	strb.w	r2, [sp, #3]
 80016e4:	4622      	mov	r2, r4
 80016e6:	e7d4      	b.n	8001692 <xPortStartScheduler+0x2a>
 80016e8:	e000e400 	.word	0xe000e400
 80016ec:	20000208 	.word	0x20000208
 80016f0:	2000020c 	.word	0x2000020c
 80016f4:	e000ed20 	.word	0xe000ed20
 80016f8:	2000000c 	.word	0x2000000c

080016fc <prvInsertBlockIntoFreeList>:
	xBlockAllocatedBit = ( ( size_t ) 1 ) << ( ( sizeof( size_t ) * heapBITS_PER_BYTE ) - 1 );
}
/*-----------------------------------------------------------*/

static void prvInsertBlockIntoFreeList( BlockLink_t *pxBlockToInsert )
{
 80016fc:	b510      	push	{r4, lr}
BlockLink_t *pxIterator;
uint8_t *puc;

	/* Iterate through the list until a block is found that has a higher address
	than the block being inserted. */
	for( pxIterator = &xStart; pxIterator->pxNextFreeBlock < pxBlockToInsert; pxIterator = pxIterator->pxNextFreeBlock )
 80016fe:	4b0f      	ldr	r3, [pc, #60]	; (800173c <prvInsertBlockIntoFreeList+0x40>)
 8001700:	681a      	ldr	r2, [r3, #0]
 8001702:	4282      	cmp	r2, r0
 8001704:	d318      	bcc.n	8001738 <prvInsertBlockIntoFreeList+0x3c>
	}

	/* Do the block being inserted, and the block it is being inserted after
	make a contiguous block of memory? */
	puc = ( uint8_t * ) pxIterator;
	if( ( puc + pxIterator->xBlockSize ) == ( uint8_t * ) pxBlockToInsert )
 8001706:	685c      	ldr	r4, [r3, #4]
 8001708:	1919      	adds	r1, r3, r4
 800170a:	4288      	cmp	r0, r1
	{
		pxIterator->xBlockSize += pxBlockToInsert->xBlockSize;
 800170c:	bf01      	itttt	eq
 800170e:	6841      	ldreq	r1, [r0, #4]
 8001710:	4618      	moveq	r0, r3
 8001712:	1909      	addeq	r1, r1, r4
 8001714:	6059      	streq	r1, [r3, #4]
	}

	/* Do the block being inserted, and the block it is being inserted before
	make a contiguous block of memory? */
	puc = ( uint8_t * ) pxBlockToInsert;
	if( ( puc + pxBlockToInsert->xBlockSize ) == ( uint8_t * ) pxIterator->pxNextFreeBlock )
 8001716:	6844      	ldr	r4, [r0, #4]
 8001718:	1901      	adds	r1, r0, r4
 800171a:	428a      	cmp	r2, r1
 800171c:	d107      	bne.n	800172e <prvInsertBlockIntoFreeList+0x32>
	{
		if( pxIterator->pxNextFreeBlock != pxEnd )
 800171e:	4908      	ldr	r1, [pc, #32]	; (8001740 <prvInsertBlockIntoFreeList+0x44>)
 8001720:	6809      	ldr	r1, [r1, #0]
 8001722:	428a      	cmp	r2, r1
		{
			/* Form one big block from the two blocks. */
			pxBlockToInsert->xBlockSize += pxIterator->pxNextFreeBlock->xBlockSize;
 8001724:	bf1f      	itttt	ne
 8001726:	6851      	ldrne	r1, [r2, #4]
			pxBlockToInsert->pxNextFreeBlock = pxIterator->pxNextFreeBlock->pxNextFreeBlock;
 8001728:	6812      	ldrne	r2, [r2, #0]
			pxBlockToInsert->xBlockSize += pxIterator->pxNextFreeBlock->xBlockSize;
 800172a:	1909      	addne	r1, r1, r4
 800172c:	6041      	strne	r1, [r0, #4]

	/* If the block being inserted plugged a gab, so was merged with the block
	before and the block after, then it's pxNextFreeBlock pointer will have
	already been set, and should not be set here as that would make it point
	to itself. */
	if( pxIterator != pxBlockToInsert )
 800172e:	4298      	cmp	r0, r3
		pxBlockToInsert->pxNextFreeBlock = pxIterator->pxNextFreeBlock;
 8001730:	6002      	str	r2, [r0, #0]
	{
		pxIterator->pxNextFreeBlock = pxBlockToInsert;
 8001732:	bf18      	it	ne
 8001734:	6018      	strne	r0, [r3, #0]
 8001736:	bd10      	pop	{r4, pc}
 8001738:	4613      	mov	r3, r2
 800173a:	e7e1      	b.n	8001700 <prvInsertBlockIntoFreeList+0x4>
 800173c:	20001220 	.word	0x20001220
 8001740:	20000210 	.word	0x20000210

08001744 <pvPortMalloc>:
{
 8001744:	e92d 41f0 	stmdb	sp!, {r4, r5, r6, r7, r8, lr}
 8001748:	4604      	mov	r4, r0
	vTaskSuspendAll();
 800174a:	f000 fc9f 	bl	800208c <vTaskSuspendAll>
		if( pxEnd == NULL )
 800174e:	493e      	ldr	r1, [pc, #248]	; (8001848 <pvPortMalloc+0x104>)
 8001750:	4d3e      	ldr	r5, [pc, #248]	; (800184c <pvPortMalloc+0x108>)
 8001752:	680b      	ldr	r3, [r1, #0]
 8001754:	bb0b      	cbnz	r3, 800179a <pvPortMalloc+0x56>
	uxAddress = ( size_t ) ucHeap;
 8001756:	4a3e      	ldr	r2, [pc, #248]	; (8001850 <pvPortMalloc+0x10c>)
	if( ( uxAddress & portBYTE_ALIGNMENT_MASK ) != 0 )
 8001758:	0756      	lsls	r6, r2, #29
		uxAddress += ( portBYTE_ALIGNMENT - 1 );
 800175a:	bf1d      	ittte	ne
 800175c:	1dd0      	addne	r0, r2, #7
		uxAddress &= ~( ( size_t ) portBYTE_ALIGNMENT_MASK );
 800175e:	f020 0007 	bicne.w	r0, r0, #7
		xTotalHeapSize -= uxAddress - ( size_t ) ucHeap;
 8001762:	f502 5380 	addne.w	r3, r2, #4096	; 0x1000
size_t xTotalHeapSize = configTOTAL_HEAP_SIZE;
 8001766:	f44f 5380 	moveq.w	r3, #4096	; 0x1000
		uxAddress &= ~( ( size_t ) portBYTE_ALIGNMENT_MASK );
 800176a:	bf1c      	itt	ne
 800176c:	4602      	movne	r2, r0
		xTotalHeapSize -= uxAddress - ( size_t ) ucHeap;
 800176e:	1a1b      	subne	r3, r3, r0
	xStart.xBlockSize = ( size_t ) 0;
 8001770:	2000      	movs	r0, #0
	uxAddress = ( ( size_t ) pucAlignedHeap ) + xTotalHeapSize;
 8001772:	4413      	add	r3, r2
	xStart.pxNextFreeBlock = ( void * ) pucAlignedHeap;
 8001774:	4e37      	ldr	r6, [pc, #220]	; (8001854 <pvPortMalloc+0x110>)
	uxAddress -= xHeapStructSize;
 8001776:	3b08      	subs	r3, #8
	uxAddress &= ~( ( size_t ) portBYTE_ALIGNMENT_MASK );
 8001778:	f023 0307 	bic.w	r3, r3, #7
	xStart.xBlockSize = ( size_t ) 0;
 800177c:	6070      	str	r0, [r6, #4]
	xStart.pxNextFreeBlock = ( void * ) pucAlignedHeap;
 800177e:	6032      	str	r2, [r6, #0]
	pxEnd->xBlockSize = 0;
 8001780:	6058      	str	r0, [r3, #4]
	pxEnd->pxNextFreeBlock = NULL;
 8001782:	6018      	str	r0, [r3, #0]
	pxEnd = ( void * ) uxAddress;
 8001784:	600b      	str	r3, [r1, #0]
	pxFirstFreeBlock->xBlockSize = uxAddress - ( size_t ) pxFirstFreeBlock;
 8001786:	1a98      	subs	r0, r3, r2
	pxFirstFreeBlock->pxNextFreeBlock = pxEnd;
 8001788:	6013      	str	r3, [r2, #0]
	xMinimumEverFreeBytesRemaining = pxFirstFreeBlock->xBlockSize;
 800178a:	4b33      	ldr	r3, [pc, #204]	; (8001858 <pvPortMalloc+0x114>)
	pxFirstFreeBlock->xBlockSize = uxAddress - ( size_t ) pxFirstFreeBlock;
 800178c:	6050      	str	r0, [r2, #4]
	xMinimumEverFreeBytesRemaining = pxFirstFreeBlock->xBlockSize;
 800178e:	6018      	str	r0, [r3, #0]
	xFreeBytesRemaining = pxFirstFreeBlock->xBlockSize;
 8001790:	4b32      	ldr	r3, [pc, #200]	; (800185c <pvPortMalloc+0x118>)
 8001792:	6018      	str	r0, [r3, #0]
	xBlockAllocatedBit = ( ( size_t ) 1 ) << ( ( sizeof( size_t ) * heapBITS_PER_BYTE ) - 1 );
 8001794:	f04f 4300 	mov.w	r3, #2147483648	; 0x80000000
 8001798:	602b      	str	r3, [r5, #0]
		if( ( xWantedSize & xBlockAllocatedBit ) == 0 )
 800179a:	682f      	ldr	r7, [r5, #0]
 800179c:	4227      	tst	r7, r4
 800179e:	d116      	bne.n	80017ce <pvPortMalloc+0x8a>
			if( xWantedSize > 0 )
 80017a0:	2c00      	cmp	r4, #0
 80017a2:	d040      	beq.n	8001826 <pvPortMalloc+0xe2>
				xWantedSize += xHeapStructSize;
 80017a4:	f104 0308 	add.w	r3, r4, #8
				if( ( xWantedSize & portBYTE_ALIGNMENT_MASK ) != 0x00 )
 80017a8:	0758      	lsls	r0, r3, #29
					xWantedSize += ( portBYTE_ALIGNMENT - ( xWantedSize & portBYTE_ALIGNMENT_MASK ) );
 80017aa:	bf1c      	itt	ne
 80017ac:	f023 0307 	bicne.w	r3, r3, #7
 80017b0:	3308      	addne	r3, #8
			if( ( xWantedSize > 0 ) && ( xWantedSize <= xFreeBytesRemaining ) )
 80017b2:	b163      	cbz	r3, 80017ce <pvPortMalloc+0x8a>
 80017b4:	4a29      	ldr	r2, [pc, #164]	; (800185c <pvPortMalloc+0x118>)
 80017b6:	6816      	ldr	r6, [r2, #0]
 80017b8:	4690      	mov	r8, r2
 80017ba:	42b3      	cmp	r3, r6
 80017bc:	d807      	bhi.n	80017ce <pvPortMalloc+0x8a>
				pxBlock = xStart.pxNextFreeBlock;
 80017be:	4a25      	ldr	r2, [pc, #148]	; (8001854 <pvPortMalloc+0x110>)
 80017c0:	6815      	ldr	r5, [r2, #0]
				while( ( pxBlock->xBlockSize < xWantedSize ) && ( pxBlock->pxNextFreeBlock != NULL ) )
 80017c2:	6868      	ldr	r0, [r5, #4]
 80017c4:	4283      	cmp	r3, r0
 80017c6:	d804      	bhi.n	80017d2 <pvPortMalloc+0x8e>
				if( pxBlock != pxEnd )
 80017c8:	6809      	ldr	r1, [r1, #0]
 80017ca:	428d      	cmp	r5, r1
 80017cc:	d107      	bne.n	80017de <pvPortMalloc+0x9a>
void *pvReturn = NULL;
 80017ce:	2400      	movs	r4, #0
 80017d0:	e029      	b.n	8001826 <pvPortMalloc+0xe2>
				while( ( pxBlock->xBlockSize < xWantedSize ) && ( pxBlock->pxNextFreeBlock != NULL ) )
 80017d2:	682c      	ldr	r4, [r5, #0]
 80017d4:	2c00      	cmp	r4, #0
 80017d6:	d0f7      	beq.n	80017c8 <pvPortMalloc+0x84>
 80017d8:	462a      	mov	r2, r5
 80017da:	4625      	mov	r5, r4
 80017dc:	e7f1      	b.n	80017c2 <pvPortMalloc+0x7e>
					pxPreviousBlock->pxNextFreeBlock = pxBlock->pxNextFreeBlock;
 80017de:	6829      	ldr	r1, [r5, #0]
					pvReturn = ( void * ) ( ( ( uint8_t * ) pxPreviousBlock->pxNextFreeBlock ) + xHeapStructSize );
 80017e0:	6814      	ldr	r4, [r2, #0]
					pxPreviousBlock->pxNextFreeBlock = pxBlock->pxNextFreeBlock;
 80017e2:	6011      	str	r1, [r2, #0]
					if( ( pxBlock->xBlockSize - xWantedSize ) > heapMINIMUM_BLOCK_SIZE )
 80017e4:	1ac2      	subs	r2, r0, r3
 80017e6:	2a10      	cmp	r2, #16
 80017e8:	d90f      	bls.n	800180a <pvPortMalloc+0xc6>
						pxNewBlockLink = ( void * ) ( ( ( uint8_t * ) pxBlock ) + xWantedSize );
 80017ea:	18e8      	adds	r0, r5, r3
						configASSERT( ( ( ( size_t ) pxNewBlockLink ) & portBYTE_ALIGNMENT_MASK ) == 0 );
 80017ec:	0741      	lsls	r1, r0, #29
 80017ee:	d008      	beq.n	8001802 <pvPortMalloc+0xbe>
	__asm volatile
 80017f0:	f04f 0350 	mov.w	r3, #80	; 0x50
 80017f4:	f383 8811 	msr	BASEPRI, r3
 80017f8:	f3bf 8f6f 	isb	sy
 80017fc:	f3bf 8f4f 	dsb	sy
 8001800:	e7fe      	b.n	8001800 <pvPortMalloc+0xbc>
						pxNewBlockLink->xBlockSize = pxBlock->xBlockSize - xWantedSize;
 8001802:	6042      	str	r2, [r0, #4]
						pxBlock->xBlockSize = xWantedSize;
 8001804:	606b      	str	r3, [r5, #4]
						prvInsertBlockIntoFreeList( pxNewBlockLink );
 8001806:	f7ff ff79 	bl	80016fc <prvInsertBlockIntoFreeList>
					xFreeBytesRemaining -= pxBlock->xBlockSize;
 800180a:	686b      	ldr	r3, [r5, #4]
					if( xFreeBytesRemaining < xMinimumEverFreeBytesRemaining )
 800180c:	4912      	ldr	r1, [pc, #72]	; (8001858 <pvPortMalloc+0x114>)
					xFreeBytesRemaining -= pxBlock->xBlockSize;
 800180e:	1af6      	subs	r6, r6, r3
					pxBlock->xBlockSize |= xBlockAllocatedBit;
 8001810:	431f      	orrs	r7, r3
					pxBlock->pxNextFreeBlock = NULL;
 8001812:	2300      	movs	r3, #0
					if( xFreeBytesRemaining < xMinimumEverFreeBytesRemaining )
 8001814:	6808      	ldr	r0, [r1, #0]
					xFreeBytesRemaining -= pxBlock->xBlockSize;
 8001816:	f8c8 6000 	str.w	r6, [r8]
					if( xFreeBytesRemaining < xMinimumEverFreeBytesRemaining )
 800181a:	4286      	cmp	r6, r0
						xMinimumEverFreeBytesRemaining = xFreeBytesRemaining;
 800181c:	bf38      	it	cc
 800181e:	600e      	strcc	r6, [r1, #0]
					pvReturn = ( void * ) ( ( ( uint8_t * ) pxPreviousBlock->pxNextFreeBlock ) + xHeapStructSize );
 8001820:	3408      	adds	r4, #8
					pxBlock->xBlockSize |= xBlockAllocatedBit;
 8001822:	606f      	str	r7, [r5, #4]
					pxBlock->pxNextFreeBlock = NULL;
 8001824:	602b      	str	r3, [r5, #0]
	( void ) xTaskResumeAll();
 8001826:	f000 fccb 	bl	80021c0 <xTaskResumeAll>
	configASSERT( ( ( ( size_t ) pvReturn ) & ( size_t ) portBYTE_ALIGNMENT_MASK ) == 0 );
 800182a:	0763      	lsls	r3, r4, #29
 800182c:	d008      	beq.n	8001840 <pvPortMalloc+0xfc>
 800182e:	f04f 0350 	mov.w	r3, #80	; 0x50
 8001832:	f383 8811 	msr	BASEPRI, r3
 8001836:	f3bf 8f6f 	isb	sy
 800183a:	f3bf 8f4f 	dsb	sy
 800183e:	e7fe      	b.n	800183e <pvPortMalloc+0xfa>
}
 8001840:	4620      	mov	r0, r4
 8001842:	e8bd 81f0 	ldmia.w	sp!, {r4, r5, r6, r7, r8, pc}
 8001846:	bf00      	nop
 8001848:	20000210 	.word	0x20000210
 800184c:	20001214 	.word	0x20001214
 8001850:	20000214 	.word	0x20000214
 8001854:	20001220 	.word	0x20001220
 8001858:	2000121c 	.word	0x2000121c
 800185c:	20001218 	.word	0x20001218

08001860 <vPortFree>:
{
 8001860:	b510      	push	{r4, lr}
	if( pv != NULL )
 8001862:	4604      	mov	r4, r0
 8001864:	b370      	cbz	r0, 80018c4 <vPortFree+0x64>
		configASSERT( ( pxLink->xBlockSize & xBlockAllocatedBit ) != 0 );
 8001866:	4a18      	ldr	r2, [pc, #96]	; (80018c8 <vPortFree+0x68>)
 8001868:	f850 3c04 	ldr.w	r3, [r0, #-4]
 800186c:	6812      	ldr	r2, [r2, #0]
 800186e:	4213      	tst	r3, r2
 8001870:	d108      	bne.n	8001884 <vPortFree+0x24>
 8001872:	f04f 0350 	mov.w	r3, #80	; 0x50
 8001876:	f383 8811 	msr	BASEPRI, r3
 800187a:	f3bf 8f6f 	isb	sy
 800187e:	f3bf 8f4f 	dsb	sy
 8001882:	e7fe      	b.n	8001882 <vPortFree+0x22>
		configASSERT( pxLink->pxNextFreeBlock == NULL );
 8001884:	f850 1c08 	ldr.w	r1, [r0, #-8]
 8001888:	b141      	cbz	r1, 800189c <vPortFree+0x3c>
 800188a:	f04f 0350 	mov.w	r3, #80	; 0x50
 800188e:	f383 8811 	msr	BASEPRI, r3
 8001892:	f3bf 8f6f 	isb	sy
 8001896:	f3bf 8f4f 	dsb	sy
 800189a:	e7fe      	b.n	800189a <vPortFree+0x3a>
				pxLink->xBlockSize &= ~xBlockAllocatedBit;
 800189c:	ea23 0302 	bic.w	r3, r3, r2
 80018a0:	f840 3c04 	str.w	r3, [r0, #-4]
				vTaskSuspendAll();
 80018a4:	f000 fbf2 	bl	800208c <vTaskSuspendAll>
					xFreeBytesRemaining += pxLink->xBlockSize;
 80018a8:	4a08      	ldr	r2, [pc, #32]	; (80018cc <vPortFree+0x6c>)
 80018aa:	f854 3c04 	ldr.w	r3, [r4, #-4]
 80018ae:	6811      	ldr	r1, [r2, #0]
					prvInsertBlockIntoFreeList( ( ( BlockLink_t * ) pxLink ) );
 80018b0:	f1a4 0008 	sub.w	r0, r4, #8
					xFreeBytesRemaining += pxLink->xBlockSize;
 80018b4:	440b      	add	r3, r1
 80018b6:	6013      	str	r3, [r2, #0]
					prvInsertBlockIntoFreeList( ( ( BlockLink_t * ) pxLink ) );
 80018b8:	f7ff ff20 	bl	80016fc <prvInsertBlockIntoFreeList>
}
 80018bc:	e8bd 4010 	ldmia.w	sp!, {r4, lr}
				( void ) xTaskResumeAll();
 80018c0:	f000 bc7e 	b.w	80021c0 <xTaskResumeAll>
 80018c4:	bd10      	pop	{r4, pc}
 80018c6:	bf00      	nop
 80018c8:	20001214 	.word	0x20001214
 80018cc:	20001218 	.word	0x20001218

080018d0 <prvCopyDataToQueue>:

#endif /* configUSE_TRACE_FACILITY */
/*-----------------------------------------------------------*/

static BaseType_t prvCopyDataToQueue( Queue_t * const pxQueue, const void *pvItemToQueue, const BaseType_t xPosition )
{
 80018d0:	b570      	push	{r4, r5, r6, lr}
 80018d2:	4615      	mov	r5, r2

	/* This function is called from a critical section. */

	uxMessagesWaiting = pxQueue->uxMessagesWaiting;

	if( pxQueue->uxItemSize == ( UBaseType_t ) 0 )
 80018d4:	6c02      	ldr	r2, [r0, #64]	; 0x40
{
 80018d6:	4604      	mov	r4, r0
	uxMessagesWaiting = pxQueue->uxMessagesWaiting;
 80018d8:	6b86      	ldr	r6, [r0, #56]	; 0x38
	if( pxQueue->uxItemSize == ( UBaseType_t ) 0 )
 80018da:	b942      	cbnz	r2, 80018ee <prvCopyDataToQueue+0x1e>
	{
		#if ( configUSE_MUTEXES == 1 )
		{
			if( pxQueue->uxQueueType == queueQUEUE_IS_MUTEX )
 80018dc:	6805      	ldr	r5, [r0, #0]
 80018de:	b99d      	cbnz	r5, 8001908 <prvCopyDataToQueue+0x38>
			{
				/* The mutex is no longer being held. */
				xReturn = xTaskPriorityDisinherit( ( void * ) pxQueue->pxMutexHolder );
 80018e0:	6840      	ldr	r0, [r0, #4]
 80018e2:	f000 fe81 	bl	80025e8 <xTaskPriorityDisinherit>
				pxQueue->pxMutexHolder = NULL;
 80018e6:	6065      	str	r5, [r4, #4]
		{
			mtCOVERAGE_TEST_MARKER();
		}
	}

	pxQueue->uxMessagesWaiting = uxMessagesWaiting + 1;
 80018e8:	3601      	adds	r6, #1
 80018ea:	63a6      	str	r6, [r4, #56]	; 0x38

	return xReturn;
}
 80018ec:	bd70      	pop	{r4, r5, r6, pc}
	else if( xPosition == queueSEND_TO_BACK )
 80018ee:	b96d      	cbnz	r5, 800190c <prvCopyDataToQueue+0x3c>
		( void ) memcpy( ( void * ) pxQueue->pcWriteTo, pvItemToQueue, ( size_t ) pxQueue->uxItemSize ); /*lint !e961 !e418 MISRA exception as the casts are only redundant for some ports, plus previous logic ensures a null pointer can only be passed to memcpy() if the copy size is 0. */
 80018f0:	6880      	ldr	r0, [r0, #8]
 80018f2:	f001 fd31 	bl	8003358 <memcpy>
		pxQueue->pcWriteTo += pxQueue->uxItemSize;
 80018f6:	68a3      	ldr	r3, [r4, #8]
 80018f8:	6c22      	ldr	r2, [r4, #64]	; 0x40
 80018fa:	4413      	add	r3, r2
		if( pxQueue->pcWriteTo >= pxQueue->pcTail ) /*lint !e946 MISRA exception justified as comparison of pointers is the cleanest solution. */
 80018fc:	6862      	ldr	r2, [r4, #4]
		pxQueue->pcWriteTo += pxQueue->uxItemSize;
 80018fe:	60a3      	str	r3, [r4, #8]
		if( pxQueue->pcWriteTo >= pxQueue->pcTail ) /*lint !e946 MISRA exception justified as comparison of pointers is the cleanest solution. */
 8001900:	4293      	cmp	r3, r2
 8001902:	d301      	bcc.n	8001908 <prvCopyDataToQueue+0x38>
			pxQueue->pcWriteTo = pxQueue->pcHead;
 8001904:	6823      	ldr	r3, [r4, #0]
 8001906:	60a3      	str	r3, [r4, #8]
BaseType_t xReturn = pdFALSE;
 8001908:	2000      	movs	r0, #0
 800190a:	e7ed      	b.n	80018e8 <prvCopyDataToQueue+0x18>
		( void ) memcpy( ( void * ) pxQueue->u.pcReadFrom, pvItemToQueue, ( size_t ) pxQueue->uxItemSize ); /*lint !e961 MISRA exception as the casts are only redundant for some ports. */
 800190c:	68c0      	ldr	r0, [r0, #12]
 800190e:	f001 fd23 	bl	8003358 <memcpy>
		pxQueue->u.pcReadFrom -= pxQueue->uxItemSize;
 8001912:	6c23      	ldr	r3, [r4, #64]	; 0x40
 8001914:	68e2      	ldr	r2, [r4, #12]
 8001916:	425b      	negs	r3, r3
		if( pxQueue->u.pcReadFrom < pxQueue->pcHead ) /*lint !e946 MISRA exception justified as comparison of pointers is the cleanest solution. */
 8001918:	6821      	ldr	r1, [r4, #0]
		pxQueue->u.pcReadFrom -= pxQueue->uxItemSize;
 800191a:	441a      	add	r2, r3
		if( pxQueue->u.pcReadFrom < pxQueue->pcHead ) /*lint !e946 MISRA exception justified as comparison of pointers is the cleanest solution. */
 800191c:	428a      	cmp	r2, r1
		pxQueue->u.pcReadFrom -= pxQueue->uxItemSize;
 800191e:	60e2      	str	r2, [r4, #12]
			pxQueue->u.pcReadFrom = ( pxQueue->pcTail - pxQueue->uxItemSize );
 8001920:	bf3e      	ittt	cc
 8001922:	6862      	ldrcc	r2, [r4, #4]
 8001924:	189b      	addcc	r3, r3, r2
 8001926:	60e3      	strcc	r3, [r4, #12]
		if( xPosition == queueOVERWRITE )
 8001928:	2d02      	cmp	r5, #2
 800192a:	d1ed      	bne.n	8001908 <prvCopyDataToQueue+0x38>
			if( uxMessagesWaiting > ( UBaseType_t ) 0 )
 800192c:	b10e      	cbz	r6, 8001932 <prvCopyDataToQueue+0x62>
				--uxMessagesWaiting;
 800192e:	3e01      	subs	r6, #1
 8001930:	e7ea      	b.n	8001908 <prvCopyDataToQueue+0x38>
BaseType_t xReturn = pdFALSE;
 8001932:	4630      	mov	r0, r6
 8001934:	e7d8      	b.n	80018e8 <prvCopyDataToQueue+0x18>

08001936 <prvCopyDataFromQueue>:
/*-----------------------------------------------------------*/

static void prvCopyDataFromQueue( Queue_t * const pxQueue, void * const pvBuffer )
{
 8001936:	4603      	mov	r3, r0
	if( pxQueue->uxItemSize != ( UBaseType_t ) 0 )
 8001938:	6c1a      	ldr	r2, [r3, #64]	; 0x40
{
 800193a:	b410      	push	{r4}
 800193c:	4608      	mov	r0, r1
	if( pxQueue->uxItemSize != ( UBaseType_t ) 0 )
 800193e:	b162      	cbz	r2, 800195a <prvCopyDataFromQueue+0x24>
	{
		pxQueue->u.pcReadFrom += pxQueue->uxItemSize;
 8001940:	68d9      	ldr	r1, [r3, #12]
		if( pxQueue->u.pcReadFrom >= pxQueue->pcTail ) /*lint !e946 MISRA exception justified as use of the relational operator is the cleanest solutions. */
 8001942:	685c      	ldr	r4, [r3, #4]
		pxQueue->u.pcReadFrom += pxQueue->uxItemSize;
 8001944:	4411      	add	r1, r2
		if( pxQueue->u.pcReadFrom >= pxQueue->pcTail ) /*lint !e946 MISRA exception justified as use of the relational operator is the cleanest solutions. */
 8001946:	42a1      	cmp	r1, r4
		pxQueue->u.pcReadFrom += pxQueue->uxItemSize;
 8001948:	60d9      	str	r1, [r3, #12]
		{
			pxQueue->u.pcReadFrom = pxQueue->pcHead;
 800194a:	bf28      	it	cs
 800194c:	6819      	ldrcs	r1, [r3, #0]
		{
			mtCOVERAGE_TEST_MARKER();
		}
		( void ) memcpy( ( void * ) pvBuffer, ( void * ) pxQueue->u.pcReadFrom, ( size_t ) pxQueue->uxItemSize ); /*lint !e961 !e418 MISRA exception as the casts are only redundant for some ports.  Also previous logic ensures a null pointer can only be passed to memcpy() when the count is 0. */
	}
}
 800194e:	bc10      	pop	{r4}
			pxQueue->u.pcReadFrom = pxQueue->pcHead;
 8001950:	bf28      	it	cs
 8001952:	60d9      	strcs	r1, [r3, #12]
		( void ) memcpy( ( void * ) pvBuffer, ( void * ) pxQueue->u.pcReadFrom, ( size_t ) pxQueue->uxItemSize ); /*lint !e961 !e418 MISRA exception as the casts are only redundant for some ports.  Also previous logic ensures a null pointer can only be passed to memcpy() when the count is 0. */
 8001954:	68d9      	ldr	r1, [r3, #12]
 8001956:	f001 bcff 	b.w	8003358 <memcpy>
}
 800195a:	bc10      	pop	{r4}
 800195c:	4770      	bx	lr

0800195e <prvUnlockQueue>:
/*-----------------------------------------------------------*/

static void prvUnlockQueue( Queue_t * const pxQueue )
{
 800195e:	b570      	push	{r4, r5, r6, lr}
 8001960:	4604      	mov	r4, r0

	/* The lock counts contains the number of extra data items placed or
	removed from the queue while the queue was locked.  When a queue is
	locked items can be added or removed, but the event lists cannot be
	updated. */
	taskENTER_CRITICAL();
 8001962:	f7ff fdff 	bl	8001564 <vPortEnterCritical>
	{
		int8_t cTxLock = pxQueue->cTxLock;
 8001966:	f894 5045 	ldrb.w	r5, [r4, #69]	; 0x45
			{
				/* Tasks that are removed from the event list will get added to
				the pending ready list as the scheduler is still suspended. */
				if( listLIST_IS_EMPTY( &( pxQueue->xTasksWaitingToReceive ) ) == pdFALSE )
				{
					if( xTaskRemoveFromEventList( &( pxQueue->xTasksWaitingToReceive ) ) != pdFALSE )
 800196a:	f104 0624 	add.w	r6, r4, #36	; 0x24
		int8_t cTxLock = pxQueue->cTxLock;
 800196e:	b26d      	sxtb	r5, r5
		while( cTxLock > queueLOCKED_UNMODIFIED )
 8001970:	2d00      	cmp	r5, #0
 8001972:	dc14      	bgt.n	800199e <prvUnlockQueue+0x40>
			#endif /* configUSE_QUEUE_SETS */

			--cTxLock;
		}

		pxQueue->cTxLock = queueUNLOCKED;
 8001974:	23ff      	movs	r3, #255	; 0xff
 8001976:	f884 3045 	strb.w	r3, [r4, #69]	; 0x45
	}
	taskEXIT_CRITICAL();
 800197a:	f7ff fe15 	bl	80015a8 <vPortExitCritical>

	/* Do the same for the Rx lock. */
	taskENTER_CRITICAL();
 800197e:	f7ff fdf1 	bl	8001564 <vPortEnterCritical>
	{
		int8_t cRxLock = pxQueue->cRxLock;
 8001982:	f894 5044 	ldrb.w	r5, [r4, #68]	; 0x44

		while( cRxLock > queueLOCKED_UNMODIFIED )
		{
			if( listLIST_IS_EMPTY( &( pxQueue->xTasksWaitingToSend ) ) == pdFALSE )
			{
				if( xTaskRemoveFromEventList( &( pxQueue->xTasksWaitingToSend ) ) != pdFALSE )
 8001986:	f104 0610 	add.w	r6, r4, #16
		int8_t cRxLock = pxQueue->cRxLock;
 800198a:	b26d      	sxtb	r5, r5
		while( cRxLock > queueLOCKED_UNMODIFIED )
 800198c:	2d00      	cmp	r5, #0
 800198e:	dc12      	bgt.n	80019b6 <prvUnlockQueue+0x58>
			{
				break;
			}
		}

		pxQueue->cRxLock = queueUNLOCKED;
 8001990:	23ff      	movs	r3, #255	; 0xff
 8001992:	f884 3044 	strb.w	r3, [r4, #68]	; 0x44
	}
	taskEXIT_CRITICAL();
}
 8001996:	e8bd 4070 	ldmia.w	sp!, {r4, r5, r6, lr}
	taskEXIT_CRITICAL();
 800199a:	f7ff be05 	b.w	80015a8 <vPortExitCritical>
				if( listLIST_IS_EMPTY( &( pxQueue->xTasksWaitingToReceive ) ) == pdFALSE )
 800199e:	6a63      	ldr	r3, [r4, #36]	; 0x24
 80019a0:	2b00      	cmp	r3, #0
 80019a2:	d0e7      	beq.n	8001974 <prvUnlockQueue+0x16>
					if( xTaskRemoveFromEventList( &( pxQueue->xTasksWaitingToReceive ) ) != pdFALSE )
 80019a4:	4630      	mov	r0, r6
 80019a6:	f000 fd35 	bl	8002414 <xTaskRemoveFromEventList>
 80019aa:	b108      	cbz	r0, 80019b0 <prvUnlockQueue+0x52>
						vTaskMissedYield();
 80019ac:	f000 fdbe 	bl	800252c <vTaskMissedYield>
 80019b0:	3d01      	subs	r5, #1
 80019b2:	b26d      	sxtb	r5, r5
 80019b4:	e7dc      	b.n	8001970 <prvUnlockQueue+0x12>
			if( listLIST_IS_EMPTY( &( pxQueue->xTasksWaitingToSend ) ) == pdFALSE )
 80019b6:	6923      	ldr	r3, [r4, #16]
 80019b8:	2b00      	cmp	r3, #0
 80019ba:	d0e9      	beq.n	8001990 <prvUnlockQueue+0x32>
				if( xTaskRemoveFromEventList( &( pxQueue->xTasksWaitingToSend ) ) != pdFALSE )
 80019bc:	4630      	mov	r0, r6
 80019be:	f000 fd29 	bl	8002414 <xTaskRemoveFromEventList>
 80019c2:	b108      	cbz	r0, 80019c8 <prvUnlockQueue+0x6a>
					vTaskMissedYield();
 80019c4:	f000 fdb2 	bl	800252c <vTaskMissedYield>
 80019c8:	3d01      	subs	r5, #1
 80019ca:	b26d      	sxtb	r5, r5
 80019cc:	e7de      	b.n	800198c <prvUnlockQueue+0x2e>
	...

080019d0 <xQueueGenericReset>:
{
 80019d0:	b538      	push	{r3, r4, r5, lr}
 80019d2:	460d      	mov	r5, r1
	configASSERT( pxQueue );
 80019d4:	4604      	mov	r4, r0
 80019d6:	b940      	cbnz	r0, 80019ea <xQueueGenericReset+0x1a>
 80019d8:	f04f 0350 	mov.w	r3, #80	; 0x50
 80019dc:	f383 8811 	msr	BASEPRI, r3
 80019e0:	f3bf 8f6f 	isb	sy
 80019e4:	f3bf 8f4f 	dsb	sy
 80019e8:	e7fe      	b.n	80019e8 <xQueueGenericReset+0x18>
	taskENTER_CRITICAL();
 80019ea:	f7ff fdbb 	bl	8001564 <vPortEnterCritical>
		pxQueue->pcTail = pxQueue->pcHead + ( pxQueue->uxLength * pxQueue->uxItemSize );
 80019ee:	6c20      	ldr	r0, [r4, #64]	; 0x40
 80019f0:	6be3      	ldr	r3, [r4, #60]	; 0x3c
 80019f2:	6822      	ldr	r2, [r4, #0]
 80019f4:	4343      	muls	r3, r0
 80019f6:	18d1      	adds	r1, r2, r3
		pxQueue->u.pcReadFrom = pxQueue->pcHead + ( ( pxQueue->uxLength - ( UBaseType_t ) 1U ) * pxQueue->uxItemSize );
 80019f8:	1a1b      	subs	r3, r3, r0
 80019fa:	4413      	add	r3, r2
		pxQueue->pcTail = pxQueue->pcHead + ( pxQueue->uxLength * pxQueue->uxItemSize );
 80019fc:	6061      	str	r1, [r4, #4]
		pxQueue->u.pcReadFrom = pxQueue->pcHead + ( ( pxQueue->uxLength - ( UBaseType_t ) 1U ) * pxQueue->uxItemSize );
 80019fe:	60e3      	str	r3, [r4, #12]
		pxQueue->uxMessagesWaiting = ( UBaseType_t ) 0U;
 8001a00:	2100      	movs	r1, #0
		pxQueue->cRxLock = queueUNLOCKED;
 8001a02:	23ff      	movs	r3, #255	; 0xff
		pxQueue->uxMessagesWaiting = ( UBaseType_t ) 0U;
 8001a04:	63a1      	str	r1, [r4, #56]	; 0x38
		pxQueue->pcWriteTo = pxQueue->pcHead;
 8001a06:	60a2      	str	r2, [r4, #8]
		pxQueue->cRxLock = queueUNLOCKED;
 8001a08:	f884 3044 	strb.w	r3, [r4, #68]	; 0x44
		pxQueue->cTxLock = queueUNLOCKED;
 8001a0c:	f884 3045 	strb.w	r3, [r4, #69]	; 0x45
		if( xNewQueue == pdFALSE )
 8001a10:	b995      	cbnz	r5, 8001a38 <xQueueGenericReset+0x68>
			if( listLIST_IS_EMPTY( &( pxQueue->xTasksWaitingToSend ) ) == pdFALSE )
 8001a12:	6923      	ldr	r3, [r4, #16]
 8001a14:	b163      	cbz	r3, 8001a30 <xQueueGenericReset+0x60>
				if( xTaskRemoveFromEventList( &( pxQueue->xTasksWaitingToSend ) ) != pdFALSE )
 8001a16:	f104 0010 	add.w	r0, r4, #16
 8001a1a:	f000 fcfb 	bl	8002414 <xTaskRemoveFromEventList>
 8001a1e:	b138      	cbz	r0, 8001a30 <xQueueGenericReset+0x60>
					queueYIELD_IF_USING_PREEMPTION();
 8001a20:	f04f 5280 	mov.w	r2, #268435456	; 0x10000000
 8001a24:	4b09      	ldr	r3, [pc, #36]	; (8001a4c <xQueueGenericReset+0x7c>)
 8001a26:	601a      	str	r2, [r3, #0]
 8001a28:	f3bf 8f4f 	dsb	sy
 8001a2c:	f3bf 8f6f 	isb	sy
	taskEXIT_CRITICAL();
 8001a30:	f7ff fdba 	bl	80015a8 <vPortExitCritical>
}
 8001a34:	2001      	movs	r0, #1
 8001a36:	bd38      	pop	{r3, r4, r5, pc}
			vListInitialise( &( pxQueue->xTasksWaitingToSend ) );
 8001a38:	f104 0010 	add.w	r0, r4, #16
 8001a3c:	f7ff fd00 	bl	8001440 <vListInitialise>
			vListInitialise( &( pxQueue->xTasksWaitingToReceive ) );
 8001a40:	f104 0024 	add.w	r0, r4, #36	; 0x24
 8001a44:	f7ff fcfc 	bl	8001440 <vListInitialise>
 8001a48:	e7f2      	b.n	8001a30 <xQueueGenericReset+0x60>
 8001a4a:	bf00      	nop
 8001a4c:	e000ed04 	.word	0xe000ed04

08001a50 <xQueueGenericCreate>:
	{
 8001a50:	b570      	push	{r4, r5, r6, lr}
 8001a52:	460d      	mov	r5, r1
		configASSERT( uxQueueLength > ( UBaseType_t ) 0 );
 8001a54:	4606      	mov	r6, r0
 8001a56:	b940      	cbnz	r0, 8001a6a <xQueueGenericCreate+0x1a>
 8001a58:	f04f 0350 	mov.w	r3, #80	; 0x50
 8001a5c:	f383 8811 	msr	BASEPRI, r3
 8001a60:	f3bf 8f6f 	isb	sy
 8001a64:	f3bf 8f4f 	dsb	sy
 8001a68:	e7fe      	b.n	8001a68 <xQueueGenericCreate+0x18>
			xQueueSizeInBytes = ( size_t ) ( uxQueueLength * uxItemSize ); /*lint !e961 MISRA exception as the casts are only redundant for some ports. */
 8001a6a:	4348      	muls	r0, r1
		pxNewQueue = ( Queue_t * ) pvPortMalloc( sizeof( Queue_t ) + xQueueSizeInBytes );
 8001a6c:	3048      	adds	r0, #72	; 0x48
 8001a6e:	f7ff fe69 	bl	8001744 <pvPortMalloc>
		if( pxNewQueue != NULL )
 8001a72:	4604      	mov	r4, r0
 8001a74:	b138      	cbz	r0, 8001a86 <xQueueGenericCreate+0x36>
	if( uxItemSize == ( UBaseType_t ) 0 )
 8001a76:	b945      	cbnz	r5, 8001a8a <xQueueGenericCreate+0x3a>
		pxNewQueue->pcHead = ( int8_t * ) pxNewQueue;
 8001a78:	6020      	str	r0, [r4, #0]
	pxNewQueue->uxLength = uxQueueLength;
 8001a7a:	63e6      	str	r6, [r4, #60]	; 0x3c
	pxNewQueue->uxItemSize = uxItemSize;
 8001a7c:	6425      	str	r5, [r4, #64]	; 0x40
	( void ) xQueueGenericReset( pxNewQueue, pdTRUE );
 8001a7e:	2101      	movs	r1, #1
 8001a80:	4620      	mov	r0, r4
 8001a82:	f7ff ffa5 	bl	80019d0 <xQueueGenericReset>
	}
 8001a86:	4620      	mov	r0, r4
 8001a88:	bd70      	pop	{r4, r5, r6, pc}
			pucQueueStorage = ( ( uint8_t * ) pxNewQueue ) + sizeof( Queue_t );
 8001a8a:	f100 0348 	add.w	r3, r0, #72	; 0x48
		pxNewQueue->pcHead = ( int8_t * ) pucQueueStorage;
 8001a8e:	6003      	str	r3, [r0, #0]
 8001a90:	e7f3      	b.n	8001a7a <xQueueGenericCreate+0x2a>
	...

08001a94 <xQueueGenericSend>:
{
 8001a94:	e92d 47ff 	stmdb	sp!, {r0, r1, r2, r3, r4, r5, r6, r7, r8, r9, sl, lr}
 8001a98:	4689      	mov	r9, r1
 8001a9a:	9201      	str	r2, [sp, #4]
 8001a9c:	461f      	mov	r7, r3
	configASSERT( pxQueue );
 8001a9e:	4604      	mov	r4, r0
 8001aa0:	b940      	cbnz	r0, 8001ab4 <xQueueGenericSend+0x20>
 8001aa2:	f04f 0350 	mov.w	r3, #80	; 0x50
 8001aa6:	f383 8811 	msr	BASEPRI, r3
 8001aaa:	f3bf 8f6f 	isb	sy
 8001aae:	f3bf 8f4f 	dsb	sy
 8001ab2:	e7fe      	b.n	8001ab2 <xQueueGenericSend+0x1e>
	configASSERT( !( ( pvItemToQueue == NULL ) && ( pxQueue->uxItemSize != ( UBaseType_t ) 0U ) ) );
 8001ab4:	2900      	cmp	r1, #0
 8001ab6:	f040 8088 	bne.w	8001bca <xQueueGenericSend+0x136>
 8001aba:	6c03      	ldr	r3, [r0, #64]	; 0x40
 8001abc:	2b00      	cmp	r3, #0
 8001abe:	f000 8084 	beq.w	8001bca <xQueueGenericSend+0x136>
 8001ac2:	f04f 0350 	mov.w	r3, #80	; 0x50
 8001ac6:	f383 8811 	msr	BASEPRI, r3
 8001aca:	f3bf 8f6f 	isb	sy
 8001ace:	f3bf 8f4f 	dsb	sy
 8001ad2:	e7fe      	b.n	8001ad2 <xQueueGenericSend+0x3e>
		configASSERT( !( ( xTaskGetSchedulerState() == taskSCHEDULER_SUSPENDED ) && ( xTicksToWait != 0 ) ) );
 8001ad4:	9e01      	ldr	r6, [sp, #4]
 8001ad6:	2e00      	cmp	r6, #0
 8001ad8:	f000 8082 	beq.w	8001be0 <xQueueGenericSend+0x14c>
 8001adc:	f04f 0350 	mov.w	r3, #80	; 0x50
 8001ae0:	f383 8811 	msr	BASEPRI, r3
 8001ae4:	f3bf 8f6f 	isb	sy
 8001ae8:	f3bf 8f4f 	dsb	sy
 8001aec:	e7fe      	b.n	8001aec <xQueueGenericSend+0x58>
				if( xTicksToWait == ( TickType_t ) 0 )
 8001aee:	9d01      	ldr	r5, [sp, #4]
 8001af0:	b91d      	cbnz	r5, 8001afa <xQueueGenericSend+0x66>
					taskEXIT_CRITICAL();
 8001af2:	f7ff fd59 	bl	80015a8 <vPortExitCritical>
			return errQUEUE_FULL;
 8001af6:	2000      	movs	r0, #0
 8001af8:	e058      	b.n	8001bac <xQueueGenericSend+0x118>
				else if( xEntryTimeSet == pdFALSE )
 8001afa:	b916      	cbnz	r6, 8001b02 <xQueueGenericSend+0x6e>
					vTaskSetTimeOutState( &xTimeOut );
 8001afc:	a802      	add	r0, sp, #8
 8001afe:	f000 fccb 	bl	8002498 <vTaskSetTimeOutState>
		taskEXIT_CRITICAL();
 8001b02:	f7ff fd51 	bl	80015a8 <vPortExitCritical>
		vTaskSuspendAll();
 8001b06:	f000 fac1 	bl	800208c <vTaskSuspendAll>
		prvLockQueue( pxQueue );
 8001b0a:	f7ff fd2b 	bl	8001564 <vPortEnterCritical>
 8001b0e:	f894 3044 	ldrb.w	r3, [r4, #68]	; 0x44
 8001b12:	2bff      	cmp	r3, #255	; 0xff
 8001b14:	bf08      	it	eq
 8001b16:	f884 8044 	strbeq.w	r8, [r4, #68]	; 0x44
 8001b1a:	f894 3045 	ldrb.w	r3, [r4, #69]	; 0x45
 8001b1e:	2bff      	cmp	r3, #255	; 0xff
 8001b20:	bf08      	it	eq
 8001b22:	f884 8045 	strbeq.w	r8, [r4, #69]	; 0x45
 8001b26:	f7ff fd3f 	bl	80015a8 <vPortExitCritical>
		if( xTaskCheckForTimeOut( &xTimeOut, &xTicksToWait ) == pdFALSE )
 8001b2a:	a901      	add	r1, sp, #4
 8001b2c:	a802      	add	r0, sp, #8
 8001b2e:	f000 fcc3 	bl	80024b8 <xTaskCheckForTimeOut>
 8001b32:	2800      	cmp	r0, #0
 8001b34:	d143      	bne.n	8001bbe <xQueueGenericSend+0x12a>

static BaseType_t prvIsQueueFull( const Queue_t *pxQueue )
{
BaseType_t xReturn;

	taskENTER_CRITICAL();
 8001b36:	f7ff fd15 	bl	8001564 <vPortEnterCritical>
	{
		if( pxQueue->uxMessagesWaiting == pxQueue->uxLength )
 8001b3a:	6ba6      	ldr	r6, [r4, #56]	; 0x38
 8001b3c:	6be5      	ldr	r5, [r4, #60]	; 0x3c
		else
		{
			xReturn = pdFALSE;
		}
	}
	taskEXIT_CRITICAL();
 8001b3e:	f7ff fd33 	bl	80015a8 <vPortExitCritical>
			if( prvIsQueueFull( pxQueue ) != pdFALSE )
 8001b42:	42ae      	cmp	r6, r5
 8001b44:	d135      	bne.n	8001bb2 <xQueueGenericSend+0x11e>
				vTaskPlaceOnEventList( &( pxQueue->xTasksWaitingToSend ), xTicksToWait );
 8001b46:	9901      	ldr	r1, [sp, #4]
 8001b48:	f104 0010 	add.w	r0, r4, #16
 8001b4c:	f000 fc48 	bl	80023e0 <vTaskPlaceOnEventList>
				prvUnlockQueue( pxQueue );
 8001b50:	4620      	mov	r0, r4
 8001b52:	f7ff ff04 	bl	800195e <prvUnlockQueue>
				if( xTaskResumeAll() == pdFALSE )
 8001b56:	f000 fb33 	bl	80021c0 <xTaskResumeAll>
 8001b5a:	b938      	cbnz	r0, 8001b6c <xQueueGenericSend+0xd8>
					portYIELD_WITHIN_API();
 8001b5c:	f04f 5380 	mov.w	r3, #268435456	; 0x10000000
 8001b60:	f8ca 3000 	str.w	r3, [sl]
 8001b64:	f3bf 8f4f 	dsb	sy
 8001b68:	f3bf 8f6f 	isb	sy
 8001b6c:	2601      	movs	r6, #1
		taskENTER_CRITICAL();
 8001b6e:	f7ff fcf9 	bl	8001564 <vPortEnterCritical>
			if( ( pxQueue->uxMessagesWaiting < pxQueue->uxLength ) || ( xCopyPosition == queueOVERWRITE ) )
 8001b72:	6ba2      	ldr	r2, [r4, #56]	; 0x38
 8001b74:	6be3      	ldr	r3, [r4, #60]	; 0x3c
 8001b76:	429a      	cmp	r2, r3
 8001b78:	d301      	bcc.n	8001b7e <xQueueGenericSend+0xea>
 8001b7a:	2f02      	cmp	r7, #2
 8001b7c:	d1b7      	bne.n	8001aee <xQueueGenericSend+0x5a>
				xYieldRequired = prvCopyDataToQueue( pxQueue, pvItemToQueue, xCopyPosition );
 8001b7e:	463a      	mov	r2, r7
 8001b80:	4649      	mov	r1, r9
 8001b82:	4620      	mov	r0, r4
 8001b84:	f7ff fea4 	bl	80018d0 <prvCopyDataToQueue>
					if( listLIST_IS_EMPTY( &( pxQueue->xTasksWaitingToReceive ) ) == pdFALSE )
 8001b88:	6a63      	ldr	r3, [r4, #36]	; 0x24
 8001b8a:	b11b      	cbz	r3, 8001b94 <xQueueGenericSend+0x100>
						if( xTaskRemoveFromEventList( &( pxQueue->xTasksWaitingToReceive ) ) != pdFALSE )
 8001b8c:	f104 0024 	add.w	r0, r4, #36	; 0x24
 8001b90:	f000 fc40 	bl	8002414 <xTaskRemoveFromEventList>
					else if( xYieldRequired != pdFALSE )
 8001b94:	b138      	cbz	r0, 8001ba6 <xQueueGenericSend+0x112>
						queueYIELD_IF_USING_PREEMPTION();
 8001b96:	f04f 5280 	mov.w	r2, #268435456	; 0x10000000
 8001b9a:	4b18      	ldr	r3, [pc, #96]	; (8001bfc <xQueueGenericSend+0x168>)
 8001b9c:	601a      	str	r2, [r3, #0]
 8001b9e:	f3bf 8f4f 	dsb	sy
 8001ba2:	f3bf 8f6f 	isb	sy
				taskEXIT_CRITICAL();
 8001ba6:	f7ff fcff 	bl	80015a8 <vPortExitCritical>
				return pdPASS;
 8001baa:	2001      	movs	r0, #1
}
 8001bac:	b004      	add	sp, #16
 8001bae:	e8bd 87f0 	ldmia.w	sp!, {r4, r5, r6, r7, r8, r9, sl, pc}
				prvUnlockQueue( pxQueue );
 8001bb2:	4620      	mov	r0, r4
 8001bb4:	f7ff fed3 	bl	800195e <prvUnlockQueue>
				( void ) xTaskResumeAll();
 8001bb8:	f000 fb02 	bl	80021c0 <xTaskResumeAll>
 8001bbc:	e7d6      	b.n	8001b6c <xQueueGenericSend+0xd8>
			prvUnlockQueue( pxQueue );
 8001bbe:	4620      	mov	r0, r4
 8001bc0:	f7ff fecd 	bl	800195e <prvUnlockQueue>
			( void ) xTaskResumeAll();
 8001bc4:	f000 fafc 	bl	80021c0 <xTaskResumeAll>
 8001bc8:	e795      	b.n	8001af6 <xQueueGenericSend+0x62>
	configASSERT( !( ( xCopyPosition == queueOVERWRITE ) && ( pxQueue->uxLength != 1 ) ) );
 8001bca:	2f02      	cmp	r7, #2
 8001bcc:	d102      	bne.n	8001bd4 <xQueueGenericSend+0x140>
 8001bce:	6be3      	ldr	r3, [r4, #60]	; 0x3c
 8001bd0:	2b01      	cmp	r3, #1
 8001bd2:	d10a      	bne.n	8001bea <xQueueGenericSend+0x156>
		configASSERT( !( ( xTaskGetSchedulerState() == taskSCHEDULER_SUSPENDED ) && ( xTicksToWait != 0 ) ) );
 8001bd4:	f000 fcb0 	bl	8002538 <xTaskGetSchedulerState>
 8001bd8:	2800      	cmp	r0, #0
 8001bda:	f43f af7b 	beq.w	8001ad4 <xQueueGenericSend+0x40>
 8001bde:	2600      	movs	r6, #0
		prvLockQueue( pxQueue );
 8001be0:	f04f 0800 	mov.w	r8, #0
					portYIELD_WITHIN_API();
 8001be4:	f8df a014 	ldr.w	sl, [pc, #20]	; 8001bfc <xQueueGenericSend+0x168>
 8001be8:	e7c1      	b.n	8001b6e <xQueueGenericSend+0xda>
 8001bea:	f04f 0350 	mov.w	r3, #80	; 0x50
 8001bee:	f383 8811 	msr	BASEPRI, r3
 8001bf2:	f3bf 8f6f 	isb	sy
 8001bf6:	f3bf 8f4f 	dsb	sy
 8001bfa:	e7fe      	b.n	8001bfa <xQueueGenericSend+0x166>
 8001bfc:	e000ed04 	.word	0xe000ed04

08001c00 <xQueueGenericReceive>:
{
 8001c00:	e92d 47ff 	stmdb	sp!, {r0, r1, r2, r3, r4, r5, r6, r7, r8, r9, sl, lr}
 8001c04:	4688      	mov	r8, r1
 8001c06:	9201      	str	r2, [sp, #4]
 8001c08:	4699      	mov	r9, r3
	configASSERT( pxQueue );
 8001c0a:	4604      	mov	r4, r0
 8001c0c:	b940      	cbnz	r0, 8001c20 <xQueueGenericReceive+0x20>
 8001c0e:	f04f 0350 	mov.w	r3, #80	; 0x50
 8001c12:	f383 8811 	msr	BASEPRI, r3
 8001c16:	f3bf 8f6f 	isb	sy
 8001c1a:	f3bf 8f4f 	dsb	sy
 8001c1e:	e7fe      	b.n	8001c1e <xQueueGenericReceive+0x1e>
	configASSERT( !( ( pvBuffer == NULL ) && ( pxQueue->uxItemSize != ( UBaseType_t ) 0U ) ) );
 8001c20:	2900      	cmp	r1, #0
 8001c22:	f040 80a5 	bne.w	8001d70 <xQueueGenericReceive+0x170>
 8001c26:	6c03      	ldr	r3, [r0, #64]	; 0x40
 8001c28:	2b00      	cmp	r3, #0
 8001c2a:	f000 80a1 	beq.w	8001d70 <xQueueGenericReceive+0x170>
 8001c2e:	f04f 0350 	mov.w	r3, #80	; 0x50
 8001c32:	f383 8811 	msr	BASEPRI, r3
 8001c36:	f3bf 8f6f 	isb	sy
 8001c3a:	f3bf 8f4f 	dsb	sy
 8001c3e:	e7fe      	b.n	8001c3e <xQueueGenericReceive+0x3e>
		configASSERT( !( ( xTaskGetSchedulerState() == taskSCHEDULER_SUSPENDED ) && ( xTicksToWait != 0 ) ) );
 8001c40:	9e01      	ldr	r6, [sp, #4]
 8001c42:	2e00      	cmp	r6, #0
 8001c44:	f000 809a 	beq.w	8001d7c <xQueueGenericReceive+0x17c>
 8001c48:	f04f 0350 	mov.w	r3, #80	; 0x50
 8001c4c:	f383 8811 	msr	BASEPRI, r3
 8001c50:	f3bf 8f6f 	isb	sy
 8001c54:	f3bf 8f4f 	dsb	sy
 8001c58:	e7fe      	b.n	8001c58 <xQueueGenericReceive+0x58>
					if( listLIST_IS_EMPTY( &( pxQueue->xTasksWaitingToReceive ) ) == pdFALSE )
 8001c5a:	6a63      	ldr	r3, [r4, #36]	; 0x24
					pxQueue->u.pcReadFrom = pcOriginalReadPosition;
 8001c5c:	60e6      	str	r6, [r4, #12]
					if( listLIST_IS_EMPTY( &( pxQueue->xTasksWaitingToReceive ) ) == pdFALSE )
 8001c5e:	2b00      	cmp	r3, #0
 8001c60:	d06d      	beq.n	8001d3e <xQueueGenericReceive+0x13e>
						if( xTaskRemoveFromEventList( &( pxQueue->xTasksWaitingToReceive ) ) != pdFALSE )
 8001c62:	f104 0024 	add.w	r0, r4, #36	; 0x24
 8001c66:	e05f      	b.n	8001d28 <xQueueGenericReceive+0x128>
				if( xTicksToWait == ( TickType_t ) 0 )
 8001c68:	9d01      	ldr	r5, [sp, #4]
 8001c6a:	b91d      	cbnz	r5, 8001c74 <xQueueGenericReceive+0x74>
					taskEXIT_CRITICAL();
 8001c6c:	f7ff fc9c 	bl	80015a8 <vPortExitCritical>
				return errQUEUE_EMPTY;
 8001c70:	4628      	mov	r0, r5
 8001c72:	e067      	b.n	8001d44 <xQueueGenericReceive+0x144>
				else if( xEntryTimeSet == pdFALSE )
 8001c74:	b916      	cbnz	r6, 8001c7c <xQueueGenericReceive+0x7c>
					vTaskSetTimeOutState( &xTimeOut );
 8001c76:	a802      	add	r0, sp, #8
 8001c78:	f000 fc0e 	bl	8002498 <vTaskSetTimeOutState>
		taskEXIT_CRITICAL();
 8001c7c:	f7ff fc94 	bl	80015a8 <vPortExitCritical>
		vTaskSuspendAll();
 8001c80:	f000 fa04 	bl	800208c <vTaskSuspendAll>
		prvLockQueue( pxQueue );
 8001c84:	f7ff fc6e 	bl	8001564 <vPortEnterCritical>
 8001c88:	f894 3044 	ldrb.w	r3, [r4, #68]	; 0x44
 8001c8c:	2bff      	cmp	r3, #255	; 0xff
 8001c8e:	bf08      	it	eq
 8001c90:	f884 7044 	strbeq.w	r7, [r4, #68]	; 0x44
 8001c94:	f894 3045 	ldrb.w	r3, [r4, #69]	; 0x45
 8001c98:	2bff      	cmp	r3, #255	; 0xff
 8001c9a:	bf08      	it	eq
 8001c9c:	f884 7045 	strbeq.w	r7, [r4, #69]	; 0x45
 8001ca0:	f7ff fc82 	bl	80015a8 <vPortExitCritical>
		if( xTaskCheckForTimeOut( &xTimeOut, &xTicksToWait ) == pdFALSE )
 8001ca4:	a901      	add	r1, sp, #4
 8001ca6:	a802      	add	r0, sp, #8
 8001ca8:	f000 fc06 	bl	80024b8 <xTaskCheckForTimeOut>
 8001cac:	2800      	cmp	r0, #0
 8001cae:	d152      	bne.n	8001d56 <xQueueGenericReceive+0x156>
	taskENTER_CRITICAL();
 8001cb0:	f7ff fc58 	bl	8001564 <vPortEnterCritical>
		if( pxQueue->uxMessagesWaiting == ( UBaseType_t )  0 )
 8001cb4:	6ba5      	ldr	r5, [r4, #56]	; 0x38
	taskEXIT_CRITICAL();
 8001cb6:	f7ff fc77 	bl	80015a8 <vPortExitCritical>
			if( prvIsQueueEmpty( pxQueue ) != pdFALSE )
 8001cba:	2d00      	cmp	r5, #0
 8001cbc:	d145      	bne.n	8001d4a <xQueueGenericReceive+0x14a>
					if( pxQueue->uxQueueType == queueQUEUE_IS_MUTEX )
 8001cbe:	6823      	ldr	r3, [r4, #0]
 8001cc0:	b933      	cbnz	r3, 8001cd0 <xQueueGenericReceive+0xd0>
						taskENTER_CRITICAL();
 8001cc2:	f7ff fc4f 	bl	8001564 <vPortEnterCritical>
							vTaskPriorityInherit( ( void * ) pxQueue->pxMutexHolder );
 8001cc6:	6860      	ldr	r0, [r4, #4]
 8001cc8:	f000 fc46 	bl	8002558 <vTaskPriorityInherit>
						taskEXIT_CRITICAL();
 8001ccc:	f7ff fc6c 	bl	80015a8 <vPortExitCritical>
				vTaskPlaceOnEventList( &( pxQueue->xTasksWaitingToReceive ), xTicksToWait );
 8001cd0:	9901      	ldr	r1, [sp, #4]
 8001cd2:	f104 0024 	add.w	r0, r4, #36	; 0x24
 8001cd6:	f000 fb83 	bl	80023e0 <vTaskPlaceOnEventList>
				prvUnlockQueue( pxQueue );
 8001cda:	4620      	mov	r0, r4
 8001cdc:	f7ff fe3f 	bl	800195e <prvUnlockQueue>
				if( xTaskResumeAll() == pdFALSE )
 8001ce0:	f000 fa6e 	bl	80021c0 <xTaskResumeAll>
 8001ce4:	b938      	cbnz	r0, 8001cf6 <xQueueGenericReceive+0xf6>
					portYIELD_WITHIN_API();
 8001ce6:	f04f 5380 	mov.w	r3, #268435456	; 0x10000000
 8001cea:	f8ca 3000 	str.w	r3, [sl]
 8001cee:	f3bf 8f4f 	dsb	sy
 8001cf2:	f3bf 8f6f 	isb	sy
 8001cf6:	2601      	movs	r6, #1
		taskENTER_CRITICAL();
 8001cf8:	f7ff fc34 	bl	8001564 <vPortEnterCritical>
			const UBaseType_t uxMessagesWaiting = pxQueue->uxMessagesWaiting;
 8001cfc:	6ba5      	ldr	r5, [r4, #56]	; 0x38
			if( uxMessagesWaiting > ( UBaseType_t ) 0 )
 8001cfe:	2d00      	cmp	r5, #0
 8001d00:	d0b2      	beq.n	8001c68 <xQueueGenericReceive+0x68>
				prvCopyDataFromQueue( pxQueue, pvBuffer );
 8001d02:	4641      	mov	r1, r8
 8001d04:	4620      	mov	r0, r4
				pcOriginalReadPosition = pxQueue->u.pcReadFrom;
 8001d06:	68e6      	ldr	r6, [r4, #12]
				prvCopyDataFromQueue( pxQueue, pvBuffer );
 8001d08:	f7ff fe15 	bl	8001936 <prvCopyDataFromQueue>
				if( xJustPeeking == pdFALSE )
 8001d0c:	f1b9 0f00 	cmp.w	r9, #0
 8001d10:	d1a3      	bne.n	8001c5a <xQueueGenericReceive+0x5a>
						if( pxQueue->uxQueueType == queueQUEUE_IS_MUTEX )
 8001d12:	6823      	ldr	r3, [r4, #0]
					pxQueue->uxMessagesWaiting = uxMessagesWaiting - 1;
 8001d14:	3d01      	subs	r5, #1
 8001d16:	63a5      	str	r5, [r4, #56]	; 0x38
						if( pxQueue->uxQueueType == queueQUEUE_IS_MUTEX )
 8001d18:	b913      	cbnz	r3, 8001d20 <xQueueGenericReceive+0x120>
							pxQueue->pxMutexHolder = ( int8_t * ) pvTaskIncrementMutexHeldCount(); /*lint !e961 Cast is not redundant as TaskHandle_t is a typedef. */
 8001d1a:	f000 fcb5 	bl	8002688 <pvTaskIncrementMutexHeldCount>
 8001d1e:	6060      	str	r0, [r4, #4]
					if( listLIST_IS_EMPTY( &( pxQueue->xTasksWaitingToSend ) ) == pdFALSE )
 8001d20:	6923      	ldr	r3, [r4, #16]
 8001d22:	b163      	cbz	r3, 8001d3e <xQueueGenericReceive+0x13e>
						if( xTaskRemoveFromEventList( &( pxQueue->xTasksWaitingToSend ) ) != pdFALSE )
 8001d24:	f104 0010 	add.w	r0, r4, #16
						if( xTaskRemoveFromEventList( &( pxQueue->xTasksWaitingToReceive ) ) != pdFALSE )
 8001d28:	f000 fb74 	bl	8002414 <xTaskRemoveFromEventList>
 8001d2c:	b138      	cbz	r0, 8001d3e <xQueueGenericReceive+0x13e>
							queueYIELD_IF_USING_PREEMPTION();
 8001d2e:	f04f 5280 	mov.w	r2, #268435456	; 0x10000000
 8001d32:	4b14      	ldr	r3, [pc, #80]	; (8001d84 <xQueueGenericReceive+0x184>)
 8001d34:	601a      	str	r2, [r3, #0]
 8001d36:	f3bf 8f4f 	dsb	sy
 8001d3a:	f3bf 8f6f 	isb	sy
				taskEXIT_CRITICAL();
 8001d3e:	f7ff fc33 	bl	80015a8 <vPortExitCritical>
				return pdPASS;
 8001d42:	2001      	movs	r0, #1
}
 8001d44:	b004      	add	sp, #16
 8001d46:	e8bd 87f0 	ldmia.w	sp!, {r4, r5, r6, r7, r8, r9, sl, pc}
				prvUnlockQueue( pxQueue );
 8001d4a:	4620      	mov	r0, r4
 8001d4c:	f7ff fe07 	bl	800195e <prvUnlockQueue>
				( void ) xTaskResumeAll();
 8001d50:	f000 fa36 	bl	80021c0 <xTaskResumeAll>
 8001d54:	e7cf      	b.n	8001cf6 <xQueueGenericReceive+0xf6>
			prvUnlockQueue( pxQueue );
 8001d56:	4620      	mov	r0, r4
 8001d58:	f7ff fe01 	bl	800195e <prvUnlockQueue>
			( void ) xTaskResumeAll();
 8001d5c:	f000 fa30 	bl	80021c0 <xTaskResumeAll>
	taskENTER_CRITICAL();
 8001d60:	f7ff fc00 	bl	8001564 <vPortEnterCritical>
		if( pxQueue->uxMessagesWaiting == ( UBaseType_t )  0 )
 8001d64:	6ba5      	ldr	r5, [r4, #56]	; 0x38
	taskEXIT_CRITICAL();
 8001d66:	f7ff fc1f 	bl	80015a8 <vPortExitCritical>
			if( prvIsQueueEmpty( pxQueue ) != pdFALSE )
 8001d6a:	2d00      	cmp	r5, #0
 8001d6c:	d1c3      	bne.n	8001cf6 <xQueueGenericReceive+0xf6>
 8001d6e:	e77f      	b.n	8001c70 <xQueueGenericReceive+0x70>
		configASSERT( !( ( xTaskGetSchedulerState() == taskSCHEDULER_SUSPENDED ) && ( xTicksToWait != 0 ) ) );
 8001d70:	f000 fbe2 	bl	8002538 <xTaskGetSchedulerState>
 8001d74:	2800      	cmp	r0, #0
 8001d76:	f43f af63 	beq.w	8001c40 <xQueueGenericReceive+0x40>
 8001d7a:	2600      	movs	r6, #0
		prvLockQueue( pxQueue );
 8001d7c:	2700      	movs	r7, #0
					portYIELD_WITHIN_API();
 8001d7e:	f8df a004 	ldr.w	sl, [pc, #4]	; 8001d84 <xQueueGenericReceive+0x184>
 8001d82:	e7b9      	b.n	8001cf8 <xQueueGenericReceive+0xf8>
 8001d84:	e000ed04 	.word	0xe000ed04

08001d88 <uxQueueMessagesWaiting>:
{
 8001d88:	b510      	push	{r4, lr}
	configASSERT( xQueue );
 8001d8a:	4604      	mov	r4, r0
 8001d8c:	b940      	cbnz	r0, 8001da0 <uxQueueMessagesWaiting+0x18>
 8001d8e:	f04f 0350 	mov.w	r3, #80	; 0x50
 8001d92:	f383 8811 	msr	BASEPRI, r3
 8001d96:	f3bf 8f6f 	isb	sy
 8001d9a:	f3bf 8f4f 	dsb	sy
 8001d9e:	e7fe      	b.n	8001d9e <uxQueueMessagesWaiting+0x16>
	taskENTER_CRITICAL();
 8001da0:	f7ff fbe0 	bl	8001564 <vPortEnterCritical>
		uxReturn = ( ( Queue_t * ) xQueue )->uxMessagesWaiting;
 8001da4:	6ba4      	ldr	r4, [r4, #56]	; 0x38
	taskEXIT_CRITICAL();
 8001da6:	f7ff fbff 	bl	80015a8 <vPortExitCritical>
} /*lint !e818 Pointer cannot be declared const as xQueue is a typedef not pointer. */
 8001daa:	4620      	mov	r0, r4
 8001dac:	bd10      	pop	{r4, pc}
	...

08001db0 <prvResetNextTaskUnblockTime>:

static void prvResetNextTaskUnblockTime( void )
{
TCB_t *pxTCB;

	if( listLIST_IS_EMPTY( pxDelayedTaskList ) != pdFALSE )
 8001db0:	4a06      	ldr	r2, [pc, #24]	; (8001dcc <prvResetNextTaskUnblockTime+0x1c>)
 8001db2:	6813      	ldr	r3, [r2, #0]
 8001db4:	6819      	ldr	r1, [r3, #0]
 8001db6:	4b06      	ldr	r3, [pc, #24]	; (8001dd0 <prvResetNextTaskUnblockTime+0x20>)
 8001db8:	b919      	cbnz	r1, 8001dc2 <prvResetNextTaskUnblockTime+0x12>
	{
		/* The new current delayed list is empty.  Set xNextTaskUnblockTime to
		the maximum possible value so it is	extremely unlikely that the
		if( xTickCount >= xNextTaskUnblockTime ) test will pass until
		there is an item in the delayed list. */
		xNextTaskUnblockTime = portMAX_DELAY;
 8001dba:	f04f 32ff 	mov.w	r2, #4294967295
		/* The new current delayed list is not empty, get the value of
		the item at the head of the delayed list.  This is the time at
		which the task at the head of the delayed list should be removed
		from the Blocked state. */
		( pxTCB ) = ( TCB_t * ) listGET_OWNER_OF_HEAD_ENTRY( pxDelayedTaskList );
		xNextTaskUnblockTime = listGET_LIST_ITEM_VALUE( &( ( pxTCB )->xStateListItem ) );
 8001dbe:	601a      	str	r2, [r3, #0]
 8001dc0:	4770      	bx	lr
		( pxTCB ) = ( TCB_t * ) listGET_OWNER_OF_HEAD_ENTRY( pxDelayedTaskList );
 8001dc2:	6812      	ldr	r2, [r2, #0]
 8001dc4:	68d2      	ldr	r2, [r2, #12]
		xNextTaskUnblockTime = listGET_LIST_ITEM_VALUE( &( ( pxTCB )->xStateListItem ) );
 8001dc6:	68d2      	ldr	r2, [r2, #12]
 8001dc8:	6852      	ldr	r2, [r2, #4]
 8001dca:	e7f8      	b.n	8001dbe <prvResetNextTaskUnblockTime+0xe>
 8001dcc:	2000122c 	.word	0x2000122c
 8001dd0:	20001304 	.word	0x20001304

08001dd4 <prvAddCurrentTaskToDelayedList>:
#endif /* configUSE_TASK_NOTIFICATIONS */
/*-----------------------------------------------------------*/


static void prvAddCurrentTaskToDelayedList( TickType_t xTicksToWait, const BaseType_t xCanBlockIndefinitely )
{
 8001dd4:	b5f8      	push	{r3, r4, r5, r6, r7, lr}
TickType_t xTimeToWake;
const TickType_t xConstTickCount = xTickCount;
 8001dd6:	4b1b      	ldr	r3, [pc, #108]	; (8001e44 <prvAddCurrentTaskToDelayedList+0x70>)
	}
	#endif

	/* Remove the task from the ready list before adding it to the blocked list
	as the same list item is used for both lists. */
	if( uxListRemove( &( pxCurrentTCB->xStateListItem ) ) == ( UBaseType_t ) 0 )
 8001dd8:	4e1b      	ldr	r6, [pc, #108]	; (8001e48 <prvAddCurrentTaskToDelayedList+0x74>)
const TickType_t xConstTickCount = xTickCount;
 8001dda:	681d      	ldr	r5, [r3, #0]
{
 8001ddc:	4604      	mov	r4, r0
	if( uxListRemove( &( pxCurrentTCB->xStateListItem ) ) == ( UBaseType_t ) 0 )
 8001dde:	6830      	ldr	r0, [r6, #0]
{
 8001de0:	460f      	mov	r7, r1
	if( uxListRemove( &( pxCurrentTCB->xStateListItem ) ) == ( UBaseType_t ) 0 )
 8001de2:	3004      	adds	r0, #4
 8001de4:	f7ff fb5d 	bl	80014a2 <uxListRemove>
 8001de8:	4633      	mov	r3, r6
 8001dea:	b940      	cbnz	r0, 8001dfe <prvAddCurrentTaskToDelayedList+0x2a>
	{
		/* The current task must be in a ready list, so there is no need to
		check, and the port reset macro can be called directly. */
		portRESET_READY_PRIORITY( pxCurrentTCB->uxPriority, uxTopReadyPriority );
 8001dec:	2001      	movs	r0, #1
 8001dee:	6831      	ldr	r1, [r6, #0]
 8001df0:	4e16      	ldr	r6, [pc, #88]	; (8001e4c <prvAddCurrentTaskToDelayedList+0x78>)
 8001df2:	6ac9      	ldr	r1, [r1, #44]	; 0x2c
 8001df4:	6832      	ldr	r2, [r6, #0]
 8001df6:	4088      	lsls	r0, r1
 8001df8:	ea22 0200 	bic.w	r2, r2, r0
 8001dfc:	6032      	str	r2, [r6, #0]
		mtCOVERAGE_TEST_MARKER();
	}

	#if ( INCLUDE_vTaskSuspend == 1 )
	{
		if( ( xTicksToWait == portMAX_DELAY ) && ( xCanBlockIndefinitely != pdFALSE ) )
 8001dfe:	1c62      	adds	r2, r4, #1
 8001e00:	d107      	bne.n	8001e12 <prvAddCurrentTaskToDelayedList+0x3e>
 8001e02:	b137      	cbz	r7, 8001e12 <prvAddCurrentTaskToDelayedList+0x3e>
		{
			/* Add the task to the suspended task list instead of a delayed task
			list to ensure it is not woken by a timing event.  It will block
			indefinitely. */
			vListInsertEnd( &xSuspendedTaskList, &( pxCurrentTCB->xStateListItem ) );
 8001e04:	6819      	ldr	r1, [r3, #0]
 8001e06:	4812      	ldr	r0, [pc, #72]	; (8001e50 <prvAddCurrentTaskToDelayedList+0x7c>)
 8001e08:	3104      	adds	r1, #4

		/* Avoid compiler warning when INCLUDE_vTaskSuspend is not 1. */
		( void ) xCanBlockIndefinitely;
	}
	#endif /* INCLUDE_vTaskSuspend */
}
 8001e0a:	e8bd 40f8 	ldmia.w	sp!, {r3, r4, r5, r6, r7, lr}
			vListInsertEnd( &xSuspendedTaskList, &( pxCurrentTCB->xStateListItem ) );
 8001e0e:	f7ff bb25 	b.w	800145c <vListInsertEnd>
			xTimeToWake = xConstTickCount + xTicksToWait;
 8001e12:	442c      	add	r4, r5
			listSET_LIST_ITEM_VALUE( &( pxCurrentTCB->xStateListItem ), xTimeToWake );
 8001e14:	681a      	ldr	r2, [r3, #0]
			if( xTimeToWake < xConstTickCount )
 8001e16:	42a5      	cmp	r5, r4
			listSET_LIST_ITEM_VALUE( &( pxCurrentTCB->xStateListItem ), xTimeToWake );
 8001e18:	6054      	str	r4, [r2, #4]
			if( xTimeToWake < xConstTickCount )
 8001e1a:	d907      	bls.n	8001e2c <prvAddCurrentTaskToDelayedList+0x58>
				vListInsert( pxOverflowDelayedTaskList, &( pxCurrentTCB->xStateListItem ) );
 8001e1c:	4a0d      	ldr	r2, [pc, #52]	; (8001e54 <prvAddCurrentTaskToDelayedList+0x80>)
 8001e1e:	6810      	ldr	r0, [r2, #0]
 8001e20:	6819      	ldr	r1, [r3, #0]
}
 8001e22:	e8bd 40f8 	ldmia.w	sp!, {r3, r4, r5, r6, r7, lr}
				vListInsert( pxOverflowDelayedTaskList, &( pxCurrentTCB->xStateListItem ) );
 8001e26:	3104      	adds	r1, #4
 8001e28:	f7ff bb24 	b.w	8001474 <vListInsert>
				vListInsert( pxDelayedTaskList, &( pxCurrentTCB->xStateListItem ) );
 8001e2c:	4a0a      	ldr	r2, [pc, #40]	; (8001e58 <prvAddCurrentTaskToDelayedList+0x84>)
 8001e2e:	6810      	ldr	r0, [r2, #0]
 8001e30:	6819      	ldr	r1, [r3, #0]
 8001e32:	3104      	adds	r1, #4
 8001e34:	f7ff fb1e 	bl	8001474 <vListInsert>
				if( xTimeToWake < xNextTaskUnblockTime )
 8001e38:	4b08      	ldr	r3, [pc, #32]	; (8001e5c <prvAddCurrentTaskToDelayedList+0x88>)
 8001e3a:	681a      	ldr	r2, [r3, #0]
 8001e3c:	4294      	cmp	r4, r2
					xNextTaskUnblockTime = xTimeToWake;
 8001e3e:	bf38      	it	cc
 8001e40:	601c      	strcc	r4, [r3, #0]
 8001e42:	bdf8      	pop	{r3, r4, r5, r6, r7, pc}
 8001e44:	2000134c 	.word	0x2000134c
 8001e48:	20001228 	.word	0x20001228
 8001e4c:	200012d4 	.word	0x200012d4
 8001e50:	20001324 	.word	0x20001324
 8001e54:	20001230 	.word	0x20001230
 8001e58:	2000122c 	.word	0x2000122c
 8001e5c:	20001304 	.word	0x20001304

08001e60 <prvTaskIsTaskSuspended.part.0>:
 8001e60:	f04f 0350 	mov.w	r3, #80	; 0x50
 8001e64:	f383 8811 	msr	BASEPRI, r3
 8001e68:	f3bf 8f6f 	isb	sy
 8001e6c:	f3bf 8f4f 	dsb	sy
 8001e70:	e7fe      	b.n	8001e70 <prvTaskIsTaskSuspended.part.0+0x10>
	...

08001e74 <xTaskCreate>:
	{
 8001e74:	e92d 4ff8 	stmdb	sp!, {r3, r4, r5, r6, r7, r8, r9, sl, fp, lr}
			pxStack = ( StackType_t * ) pvPortMalloc( ( ( ( size_t ) usStackDepth ) * sizeof( StackType_t ) ) ); /*lint !e961 MISRA exception as the casts are only redundant for some ports. */
 8001e78:	ea4f 0a82 	mov.w	sl, r2, lsl #2
	{
 8001e7c:	4680      	mov	r8, r0
			pxStack = ( StackType_t * ) pvPortMalloc( ( ( ( size_t ) usStackDepth ) * sizeof( StackType_t ) ) ); /*lint !e961 MISRA exception as the casts are only redundant for some ports. */
 8001e7e:	4650      	mov	r0, sl
	{
 8001e80:	460f      	mov	r7, r1
 8001e82:	4699      	mov	r9, r3
 8001e84:	9e0b      	ldr	r6, [sp, #44]	; 0x2c
			pxStack = ( StackType_t * ) pvPortMalloc( ( ( ( size_t ) usStackDepth ) * sizeof( StackType_t ) ) ); /*lint !e961 MISRA exception as the casts are only redundant for some ports. */
 8001e86:	f7ff fc5d 	bl	8001744 <pvPortMalloc>
			if( pxStack != NULL )
 8001e8a:	4605      	mov	r5, r0
 8001e8c:	2800      	cmp	r0, #0
 8001e8e:	f000 8096 	beq.w	8001fbe <xTaskCreate+0x14a>
				pxNewTCB = ( TCB_t * ) pvPortMalloc( sizeof( TCB_t ) ); /*lint !e961 MISRA exception as the casts are only redundant for some paths. */
 8001e92:	2054      	movs	r0, #84	; 0x54
 8001e94:	f7ff fc56 	bl	8001744 <pvPortMalloc>
				if( pxNewTCB != NULL )
 8001e98:	4604      	mov	r4, r0
 8001e9a:	2800      	cmp	r0, #0
 8001e9c:	f000 808c 	beq.w	8001fb8 <xTaskCreate+0x144>
		pxTopOfStack = pxNewTCB->pxStack + ( ulStackDepth - ( uint32_t ) 1 );
 8001ea0:	f1aa 0a04 	sub.w	sl, sl, #4
					pxNewTCB->pxStack = pxStack;
 8001ea4:	6305      	str	r5, [r0, #48]	; 0x30
		pxTopOfStack = pxNewTCB->pxStack + ( ulStackDepth - ( uint32_t ) 1 );
 8001ea6:	4455      	add	r5, sl
 8001ea8:	1e7b      	subs	r3, r7, #1
		pxTopOfStack = ( StackType_t * ) ( ( ( portPOINTER_SIZE_TYPE ) pxTopOfStack ) & ( ~( ( portPOINTER_SIZE_TYPE ) portBYTE_ALIGNMENT_MASK ) ) ); /*lint !e923 MISRA exception.  Avoiding casts between pointers and integers is not practical.  Size differences accounted for using portPOINTER_SIZE_TYPE type. */
 8001eaa:	f025 0a07 	bic.w	sl, r5, #7
 8001eae:	f100 0234 	add.w	r2, r0, #52	; 0x34
 8001eb2:	370f      	adds	r7, #15
		pxNewTCB->pcTaskName[ x ] = pcName[ x ];
 8001eb4:	7859      	ldrb	r1, [r3, #1]
 8001eb6:	f802 1b01 	strb.w	r1, [r2], #1
		if( pcName[ x ] == 0x00 )
 8001eba:	f813 1f01 	ldrb.w	r1, [r3, #1]!
 8001ebe:	b109      	cbz	r1, 8001ec4 <xTaskCreate+0x50>
	for( x = ( UBaseType_t ) 0; x < ( UBaseType_t ) configMAX_TASK_NAME_LEN; x++ )
 8001ec0:	42bb      	cmp	r3, r7
 8001ec2:	d1f7      	bne.n	8001eb4 <xTaskCreate+0x40>
 8001ec4:	9d0a      	ldr	r5, [sp, #40]	; 0x28
	pxNewTCB->pcTaskName[ configMAX_TASK_NAME_LEN - 1 ] = '\0';
 8001ec6:	f04f 0b00 	mov.w	fp, #0
 8001eca:	2d06      	cmp	r5, #6
 8001ecc:	bf28      	it	cs
 8001ece:	2506      	movcs	r5, #6
	vListInitialiseItem( &( pxNewTCB->xStateListItem ) );
 8001ed0:	1d27      	adds	r7, r4, #4
	pxNewTCB->uxPriority = uxPriority;
 8001ed2:	62e5      	str	r5, [r4, #44]	; 0x2c
		pxNewTCB->uxBasePriority = uxPriority;
 8001ed4:	6465      	str	r5, [r4, #68]	; 0x44
	vListInitialiseItem( &( pxNewTCB->xStateListItem ) );
 8001ed6:	4638      	mov	r0, r7
	pxNewTCB->pcTaskName[ configMAX_TASK_NAME_LEN - 1 ] = '\0';
 8001ed8:	f884 b043 	strb.w	fp, [r4, #67]	; 0x43
		pxNewTCB->uxMutexesHeld = 0;
 8001edc:	f8c4 b048 	str.w	fp, [r4, #72]	; 0x48
	vListInitialiseItem( &( pxNewTCB->xStateListItem ) );
 8001ee0:	f7ff fab9 	bl	8001456 <vListInitialiseItem>
	listSET_LIST_ITEM_VALUE( &( pxNewTCB->xEventListItem ), ( TickType_t ) configMAX_PRIORITIES - ( TickType_t ) uxPriority ); /*lint !e961 MISRA exception as the casts are only redundant for some ports. */
 8001ee4:	f1c5 0507 	rsb	r5, r5, #7
	vListInitialiseItem( &( pxNewTCB->xEventListItem ) );
 8001ee8:	f104 0018 	add.w	r0, r4, #24
 8001eec:	f7ff fab3 	bl	8001456 <vListInitialiseItem>
		pxNewTCB->ulNotifiedValue = 0;
 8001ef0:	f8c4 b04c 	str.w	fp, [r4, #76]	; 0x4c
	listSET_LIST_ITEM_OWNER( &( pxNewTCB->xStateListItem ), pxNewTCB );
 8001ef4:	6124      	str	r4, [r4, #16]
	listSET_LIST_ITEM_VALUE( &( pxNewTCB->xEventListItem ), ( TickType_t ) configMAX_PRIORITIES - ( TickType_t ) uxPriority ); /*lint !e961 MISRA exception as the casts are only redundant for some ports. */
 8001ef6:	61a5      	str	r5, [r4, #24]
	listSET_LIST_ITEM_OWNER( &( pxNewTCB->xEventListItem ), pxNewTCB );
 8001ef8:	6264      	str	r4, [r4, #36]	; 0x24
		pxNewTCB->ucNotifyState = taskNOT_WAITING_NOTIFICATION;
 8001efa:	f884 b050 	strb.w	fp, [r4, #80]	; 0x50
		pxNewTCB->pxTopOfStack = pxPortInitialiseStack( pxTopOfStack, pxTaskCode, pvParameters );
 8001efe:	464a      	mov	r2, r9
 8001f00:	4641      	mov	r1, r8
 8001f02:	4650      	mov	r0, sl
 8001f04:	f7ff fb06 	bl	8001514 <pxPortInitialiseStack>
 8001f08:	6020      	str	r0, [r4, #0]
	if( ( void * ) pxCreatedTask != NULL )
 8001f0a:	b106      	cbz	r6, 8001f0e <xTaskCreate+0x9a>
		*pxCreatedTask = ( TaskHandle_t ) pxNewTCB;
 8001f0c:	6034      	str	r4, [r6, #0]
	taskENTER_CRITICAL();
 8001f0e:	f7ff fb29 	bl	8001564 <vPortEnterCritical>
		uxCurrentNumberOfTasks++;
 8001f12:	4b32      	ldr	r3, [pc, #200]	; (8001fdc <xTaskCreate+0x168>)
		if( pxCurrentTCB == NULL )
 8001f14:	4e32      	ldr	r6, [pc, #200]	; (8001fe0 <xTaskCreate+0x16c>)
		uxCurrentNumberOfTasks++;
 8001f16:	681a      	ldr	r2, [r3, #0]
 8001f18:	f8df 80f0 	ldr.w	r8, [pc, #240]	; 800200c <xTaskCreate+0x198>
 8001f1c:	3201      	adds	r2, #1
 8001f1e:	601a      	str	r2, [r3, #0]
		if( pxCurrentTCB == NULL )
 8001f20:	6835      	ldr	r5, [r6, #0]
 8001f22:	2d00      	cmp	r5, #0
 8001f24:	d14e      	bne.n	8001fc4 <xTaskCreate+0x150>
			pxCurrentTCB = pxNewTCB;
 8001f26:	6034      	str	r4, [r6, #0]
			if( uxCurrentNumberOfTasks == ( UBaseType_t ) 1 )
 8001f28:	681b      	ldr	r3, [r3, #0]
 8001f2a:	2b01      	cmp	r3, #1
 8001f2c:	d11d      	bne.n	8001f6a <xTaskCreate+0xf6>
		vListInitialise( &( pxReadyTasksLists[ uxPriority ] ) );
 8001f2e:	eb08 0005 	add.w	r0, r8, r5
 8001f32:	3514      	adds	r5, #20
 8001f34:	f7ff fa84 	bl	8001440 <vListInitialise>
	for( uxPriority = ( UBaseType_t ) 0U; uxPriority < ( UBaseType_t ) configMAX_PRIORITIES; uxPriority++ )
 8001f38:	2d8c      	cmp	r5, #140	; 0x8c
 8001f3a:	d1f8      	bne.n	8001f2e <xTaskCreate+0xba>
	vListInitialise( &xDelayedTaskList1 );
 8001f3c:	f8df 90d0 	ldr.w	r9, [pc, #208]	; 8002010 <xTaskCreate+0x19c>
	vListInitialise( &xDelayedTaskList2 );
 8001f40:	4d28      	ldr	r5, [pc, #160]	; (8001fe4 <xTaskCreate+0x170>)
	vListInitialise( &xDelayedTaskList1 );
 8001f42:	4648      	mov	r0, r9
 8001f44:	f7ff fa7c 	bl	8001440 <vListInitialise>
	vListInitialise( &xDelayedTaskList2 );
 8001f48:	4628      	mov	r0, r5
 8001f4a:	f7ff fa79 	bl	8001440 <vListInitialise>
	vListInitialise( &xPendingReadyList );
 8001f4e:	4826      	ldr	r0, [pc, #152]	; (8001fe8 <xTaskCreate+0x174>)
 8001f50:	f7ff fa76 	bl	8001440 <vListInitialise>
		vListInitialise( &xTasksWaitingTermination );
 8001f54:	4825      	ldr	r0, [pc, #148]	; (8001fec <xTaskCreate+0x178>)
 8001f56:	f7ff fa73 	bl	8001440 <vListInitialise>
		vListInitialise( &xSuspendedTaskList );
 8001f5a:	4825      	ldr	r0, [pc, #148]	; (8001ff0 <xTaskCreate+0x17c>)
 8001f5c:	f7ff fa70 	bl	8001440 <vListInitialise>
	pxDelayedTaskList = &xDelayedTaskList1;
 8001f60:	4b24      	ldr	r3, [pc, #144]	; (8001ff4 <xTaskCreate+0x180>)
 8001f62:	f8c3 9000 	str.w	r9, [r3]
	pxOverflowDelayedTaskList = &xDelayedTaskList2;
 8001f66:	4b24      	ldr	r3, [pc, #144]	; (8001ff8 <xTaskCreate+0x184>)
 8001f68:	601d      	str	r5, [r3, #0]
		prvAddTaskToReadyList( pxNewTCB );
 8001f6a:	2501      	movs	r5, #1
		uxTaskNumber++;
 8001f6c:	4a23      	ldr	r2, [pc, #140]	; (8001ffc <xTaskCreate+0x188>)
		prvAddTaskToReadyList( pxNewTCB );
 8001f6e:	4924      	ldr	r1, [pc, #144]	; (8002000 <xTaskCreate+0x18c>)
		uxTaskNumber++;
 8001f70:	6813      	ldr	r3, [r2, #0]
		prvAddTaskToReadyList( pxNewTCB );
 8001f72:	6808      	ldr	r0, [r1, #0]
		uxTaskNumber++;
 8001f74:	3301      	adds	r3, #1
 8001f76:	6013      	str	r3, [r2, #0]
		prvAddTaskToReadyList( pxNewTCB );
 8001f78:	6ae2      	ldr	r2, [r4, #44]	; 0x2c
 8001f7a:	fa05 f302 	lsl.w	r3, r5, r2
 8001f7e:	4303      	orrs	r3, r0
 8001f80:	2014      	movs	r0, #20
 8001f82:	600b      	str	r3, [r1, #0]
 8001f84:	fb00 8002 	mla	r0, r0, r2, r8
 8001f88:	4639      	mov	r1, r7
 8001f8a:	f7ff fa67 	bl	800145c <vListInsertEnd>
	taskEXIT_CRITICAL();
 8001f8e:	f7ff fb0b 	bl	80015a8 <vPortExitCritical>
	if( xSchedulerRunning != pdFALSE )
 8001f92:	4b1c      	ldr	r3, [pc, #112]	; (8002004 <xTaskCreate+0x190>)
 8001f94:	681b      	ldr	r3, [r3, #0]
 8001f96:	b163      	cbz	r3, 8001fb2 <xTaskCreate+0x13e>
		if( pxCurrentTCB->uxPriority < pxNewTCB->uxPriority )
 8001f98:	6833      	ldr	r3, [r6, #0]
 8001f9a:	6ada      	ldr	r2, [r3, #44]	; 0x2c
 8001f9c:	6ae3      	ldr	r3, [r4, #44]	; 0x2c
 8001f9e:	429a      	cmp	r2, r3
 8001fa0:	d207      	bcs.n	8001fb2 <xTaskCreate+0x13e>
			taskYIELD_IF_USING_PREEMPTION();
 8001fa2:	f04f 5280 	mov.w	r2, #268435456	; 0x10000000
 8001fa6:	4b18      	ldr	r3, [pc, #96]	; (8002008 <xTaskCreate+0x194>)
 8001fa8:	601a      	str	r2, [r3, #0]
 8001faa:	f3bf 8f4f 	dsb	sy
 8001fae:	f3bf 8f6f 	isb	sy
	}
 8001fb2:	4628      	mov	r0, r5
 8001fb4:	e8bd 8ff8 	ldmia.w	sp!, {r3, r4, r5, r6, r7, r8, r9, sl, fp, pc}
					vPortFree( pxStack );
 8001fb8:	4628      	mov	r0, r5
 8001fba:	f7ff fc51 	bl	8001860 <vPortFree>
			xReturn = errCOULD_NOT_ALLOCATE_REQUIRED_MEMORY;
 8001fbe:	f04f 35ff 	mov.w	r5, #4294967295
 8001fc2:	e7f6      	b.n	8001fb2 <xTaskCreate+0x13e>
			if( xSchedulerRunning == pdFALSE )
 8001fc4:	4b0f      	ldr	r3, [pc, #60]	; (8002004 <xTaskCreate+0x190>)
 8001fc6:	681b      	ldr	r3, [r3, #0]
 8001fc8:	2b00      	cmp	r3, #0
 8001fca:	d1ce      	bne.n	8001f6a <xTaskCreate+0xf6>
				if( pxCurrentTCB->uxPriority <= pxNewTCB->uxPriority )
 8001fcc:	6833      	ldr	r3, [r6, #0]
 8001fce:	6ada      	ldr	r2, [r3, #44]	; 0x2c
 8001fd0:	6ae3      	ldr	r3, [r4, #44]	; 0x2c
 8001fd2:	429a      	cmp	r2, r3
					pxCurrentTCB = pxNewTCB;
 8001fd4:	bf98      	it	ls
 8001fd6:	6034      	strls	r4, [r6, #0]
 8001fd8:	e7c7      	b.n	8001f6a <xTaskCreate+0xf6>
 8001fda:	bf00      	nop
 8001fdc:	200012c0 	.word	0x200012c0
 8001fe0:	20001228 	.word	0x20001228
 8001fe4:	200012ec 	.word	0x200012ec
 8001fe8:	2000130c 	.word	0x2000130c
 8001fec:	20001338 	.word	0x20001338
 8001ff0:	20001324 	.word	0x20001324
 8001ff4:	2000122c 	.word	0x2000122c
 8001ff8:	20001230 	.word	0x20001230
 8001ffc:	200012d0 	.word	0x200012d0
 8002000:	200012d4 	.word	0x200012d4
 8002004:	20001320 	.word	0x20001320
 8002008:	e000ed04 	.word	0xe000ed04
 800200c:	20001234 	.word	0x20001234
 8002010:	200012d8 	.word	0x200012d8

08002014 <vTaskStartScheduler>:
{
 8002014:	b513      	push	{r0, r1, r4, lr}
		xReturn = xTaskCreate(	prvIdleTask,
 8002016:	2400      	movs	r4, #0
 8002018:	4b16      	ldr	r3, [pc, #88]	; (8002074 <vTaskStartScheduler+0x60>)
 800201a:	9400      	str	r4, [sp, #0]
 800201c:	9301      	str	r3, [sp, #4]
 800201e:	2280      	movs	r2, #128	; 0x80
 8002020:	4623      	mov	r3, r4
 8002022:	4915      	ldr	r1, [pc, #84]	; (8002078 <vTaskStartScheduler+0x64>)
 8002024:	4815      	ldr	r0, [pc, #84]	; (800207c <vTaskStartScheduler+0x68>)
 8002026:	f7ff ff25 	bl	8001e74 <xTaskCreate>
	if( xReturn == pdPASS )
 800202a:	2801      	cmp	r0, #1
 800202c:	d114      	bne.n	8002058 <vTaskStartScheduler+0x44>
 800202e:	f04f 0350 	mov.w	r3, #80	; 0x50
 8002032:	f383 8811 	msr	BASEPRI, r3
 8002036:	f3bf 8f6f 	isb	sy
 800203a:	f3bf 8f4f 	dsb	sy
		xNextTaskUnblockTime = portMAX_DELAY;
 800203e:	f04f 32ff 	mov.w	r2, #4294967295
 8002042:	4b0f      	ldr	r3, [pc, #60]	; (8002080 <vTaskStartScheduler+0x6c>)
 8002044:	601a      	str	r2, [r3, #0]
		xSchedulerRunning = pdTRUE;
 8002046:	4b0f      	ldr	r3, [pc, #60]	; (8002084 <vTaskStartScheduler+0x70>)
 8002048:	6018      	str	r0, [r3, #0]
		xTickCount = ( TickType_t ) 0U;
 800204a:	4b0f      	ldr	r3, [pc, #60]	; (8002088 <vTaskStartScheduler+0x74>)
 800204c:	601c      	str	r4, [r3, #0]
}
 800204e:	b002      	add	sp, #8
 8002050:	e8bd 4010 	ldmia.w	sp!, {r4, lr}
		if( xPortStartScheduler() != pdFALSE )
 8002054:	f7ff bb08 	b.w	8001668 <xPortStartScheduler>
		configASSERT( xReturn != errCOULD_NOT_ALLOCATE_REQUIRED_MEMORY );
 8002058:	3001      	adds	r0, #1
 800205a:	d108      	bne.n	800206e <vTaskStartScheduler+0x5a>
 800205c:	f04f 0350 	mov.w	r3, #80	; 0x50
 8002060:	f383 8811 	msr	BASEPRI, r3
 8002064:	f3bf 8f6f 	isb	sy
 8002068:	f3bf 8f4f 	dsb	sy
 800206c:	e7fe      	b.n	800206c <vTaskStartScheduler+0x58>
}
 800206e:	b002      	add	sp, #8
 8002070:	bd10      	pop	{r4, pc}
 8002072:	bf00      	nop
 8002074:	20001300 	.word	0x20001300
 8002078:	08004058 	.word	0x08004058
 800207c:	080022f9 	.word	0x080022f9
 8002080:	20001304 	.word	0x20001304
 8002084:	20001320 	.word	0x20001320
 8002088:	2000134c 	.word	0x2000134c

0800208c <vTaskSuspendAll>:
	++uxSchedulerSuspended;
 800208c:	4a02      	ldr	r2, [pc, #8]	; (8002098 <vTaskSuspendAll+0xc>)
 800208e:	6813      	ldr	r3, [r2, #0]
 8002090:	3301      	adds	r3, #1
 8002092:	6013      	str	r3, [r2, #0]
 8002094:	4770      	bx	lr
 8002096:	bf00      	nop
 8002098:	200012cc 	.word	0x200012cc

0800209c <xTaskIncrementTick>:
{
 800209c:	e92d 4ff8 	stmdb	sp!, {r3, r4, r5, r6, r7, r8, r9, sl, fp, lr}
	if( uxSchedulerSuspended == ( UBaseType_t ) pdFALSE )
 80020a0:	4b3c      	ldr	r3, [pc, #240]	; (8002194 <xTaskIncrementTick+0xf8>)
 80020a2:	681b      	ldr	r3, [r3, #0]
 80020a4:	2b00      	cmp	r3, #0
 80020a6:	d153      	bne.n	8002150 <xTaskIncrementTick+0xb4>
		const TickType_t xConstTickCount = xTickCount + 1;
 80020a8:	4b3b      	ldr	r3, [pc, #236]	; (8002198 <xTaskIncrementTick+0xfc>)
 80020aa:	681c      	ldr	r4, [r3, #0]
 80020ac:	3401      	adds	r4, #1
		xTickCount = xConstTickCount;
 80020ae:	601c      	str	r4, [r3, #0]
		if( xConstTickCount == ( TickType_t ) 0U )
 80020b0:	b9bc      	cbnz	r4, 80020e2 <xTaskIncrementTick+0x46>
			taskSWITCH_DELAYED_LISTS();
 80020b2:	4b3a      	ldr	r3, [pc, #232]	; (800219c <xTaskIncrementTick+0x100>)
 80020b4:	681a      	ldr	r2, [r3, #0]
 80020b6:	6812      	ldr	r2, [r2, #0]
 80020b8:	b142      	cbz	r2, 80020cc <xTaskIncrementTick+0x30>
 80020ba:	f04f 0350 	mov.w	r3, #80	; 0x50
 80020be:	f383 8811 	msr	BASEPRI, r3
 80020c2:	f3bf 8f6f 	isb	sy
 80020c6:	f3bf 8f4f 	dsb	sy
 80020ca:	e7fe      	b.n	80020ca <xTaskIncrementTick+0x2e>
 80020cc:	4a34      	ldr	r2, [pc, #208]	; (80021a0 <xTaskIncrementTick+0x104>)
 80020ce:	6819      	ldr	r1, [r3, #0]
 80020d0:	6810      	ldr	r0, [r2, #0]
 80020d2:	6018      	str	r0, [r3, #0]
 80020d4:	6011      	str	r1, [r2, #0]
 80020d6:	4a33      	ldr	r2, [pc, #204]	; (80021a4 <xTaskIncrementTick+0x108>)
 80020d8:	6813      	ldr	r3, [r2, #0]
 80020da:	3301      	adds	r3, #1
 80020dc:	6013      	str	r3, [r2, #0]
 80020de:	f7ff fe67 	bl	8001db0 <prvResetNextTaskUnblockTime>
		if( xConstTickCount >= xNextTaskUnblockTime )
 80020e2:	4d31      	ldr	r5, [pc, #196]	; (80021a8 <xTaskIncrementTick+0x10c>)
 80020e4:	f04f 0b00 	mov.w	fp, #0
 80020e8:	682b      	ldr	r3, [r5, #0]
 80020ea:	4f30      	ldr	r7, [pc, #192]	; (80021ac <xTaskIncrementTick+0x110>)
 80020ec:	429c      	cmp	r4, r3
 80020ee:	d33e      	bcc.n	800216e <xTaskIncrementTick+0xd2>
				if( listLIST_IS_EMPTY( pxDelayedTaskList ) != pdFALSE )
 80020f0:	f8df 80a8 	ldr.w	r8, [pc, #168]	; 800219c <xTaskIncrementTick+0x100>
					prvAddTaskToReadyList( pxTCB );
 80020f4:	f8df 90c4 	ldr.w	r9, [pc, #196]	; 80021bc <xTaskIncrementTick+0x120>
				if( listLIST_IS_EMPTY( pxDelayedTaskList ) != pdFALSE )
 80020f8:	f8d8 2000 	ldr.w	r2, [r8]
 80020fc:	6812      	ldr	r2, [r2, #0]
 80020fe:	bb72      	cbnz	r2, 800215e <xTaskIncrementTick+0xc2>
					xNextTaskUnblockTime = portMAX_DELAY; /*lint !e961 MISRA exception as the casts are only redundant for some ports. */
 8002100:	f04f 32ff 	mov.w	r2, #4294967295
 8002104:	602a      	str	r2, [r5, #0]
					break;
 8002106:	e032      	b.n	800216e <xTaskIncrementTick+0xd2>
					( void ) uxListRemove( &( pxTCB->xStateListItem ) );
 8002108:	f106 0a04 	add.w	sl, r6, #4
 800210c:	4650      	mov	r0, sl
 800210e:	f7ff f9c8 	bl	80014a2 <uxListRemove>
					if( listLIST_ITEM_CONTAINER( &( pxTCB->xEventListItem ) ) != NULL )
 8002112:	6ab1      	ldr	r1, [r6, #40]	; 0x28
 8002114:	b119      	cbz	r1, 800211e <xTaskIncrementTick+0x82>
						( void ) uxListRemove( &( pxTCB->xEventListItem ) );
 8002116:	f106 0018 	add.w	r0, r6, #24
 800211a:	f7ff f9c2 	bl	80014a2 <uxListRemove>
					prvAddTaskToReadyList( pxTCB );
 800211e:	2201      	movs	r2, #1
 8002120:	f04f 0e14 	mov.w	lr, #20
 8002124:	6af0      	ldr	r0, [r6, #44]	; 0x2c
 8002126:	f8d9 3000 	ldr.w	r3, [r9]
 800212a:	fa02 f100 	lsl.w	r1, r2, r0
 800212e:	4319      	orrs	r1, r3
 8002130:	4b1f      	ldr	r3, [pc, #124]	; (80021b0 <xTaskIncrementTick+0x114>)
 8002132:	f8c9 1000 	str.w	r1, [r9]
 8002136:	fb0e 3000 	mla	r0, lr, r0, r3
 800213a:	4651      	mov	r1, sl
 800213c:	f7ff f98e 	bl	800145c <vListInsertEnd>
						if( pxTCB->uxPriority >= pxCurrentTCB->uxPriority )
 8002140:	6838      	ldr	r0, [r7, #0]
 8002142:	6af1      	ldr	r1, [r6, #44]	; 0x2c
 8002144:	6ac2      	ldr	r2, [r0, #44]	; 0x2c
							xSwitchRequired = pdTRUE;
 8002146:	4291      	cmp	r1, r2
 8002148:	bf28      	it	cs
 800214a:	f04f 0b01 	movcs.w	fp, #1
 800214e:	e7d3      	b.n	80020f8 <xTaskIncrementTick+0x5c>
		++uxPendedTicks;
 8002150:	4a18      	ldr	r2, [pc, #96]	; (80021b4 <xTaskIncrementTick+0x118>)
BaseType_t xSwitchRequired = pdFALSE;
 8002152:	f04f 0b00 	mov.w	fp, #0
		++uxPendedTicks;
 8002156:	6813      	ldr	r3, [r2, #0]
 8002158:	3301      	adds	r3, #1
 800215a:	6013      	str	r3, [r2, #0]
 800215c:	e011      	b.n	8002182 <xTaskIncrementTick+0xe6>
					pxTCB = ( TCB_t * ) listGET_OWNER_OF_HEAD_ENTRY( pxDelayedTaskList );
 800215e:	f8d8 2000 	ldr.w	r2, [r8]
 8002162:	68d2      	ldr	r2, [r2, #12]
 8002164:	68d6      	ldr	r6, [r2, #12]
					xItemValue = listGET_LIST_ITEM_VALUE( &( pxTCB->xStateListItem ) );
 8002166:	6871      	ldr	r1, [r6, #4]
					if( xConstTickCount < xItemValue )
 8002168:	428c      	cmp	r4, r1
 800216a:	d2cd      	bcs.n	8002108 <xTaskIncrementTick+0x6c>
						xNextTaskUnblockTime = xItemValue;
 800216c:	6029      	str	r1, [r5, #0]
			if( listCURRENT_LIST_LENGTH( &( pxReadyTasksLists[ pxCurrentTCB->uxPriority ] ) ) > ( UBaseType_t ) 1 )
 800216e:	683a      	ldr	r2, [r7, #0]
 8002170:	4b0f      	ldr	r3, [pc, #60]	; (80021b0 <xTaskIncrementTick+0x114>)
 8002172:	6ad1      	ldr	r1, [r2, #44]	; 0x2c
 8002174:	2214      	movs	r2, #20
 8002176:	434a      	muls	r2, r1
 8002178:	589a      	ldr	r2, [r3, r2]
				xSwitchRequired = pdTRUE;
 800217a:	2a02      	cmp	r2, #2
 800217c:	bf28      	it	cs
 800217e:	f04f 0b01 	movcs.w	fp, #1
		if( xYieldPending != pdFALSE )
 8002182:	4a0d      	ldr	r2, [pc, #52]	; (80021b8 <xTaskIncrementTick+0x11c>)
 8002184:	6812      	ldr	r2, [r2, #0]
			xSwitchRequired = pdTRUE;
 8002186:	2a00      	cmp	r2, #0
 8002188:	bf18      	it	ne
 800218a:	f04f 0b01 	movne.w	fp, #1
}
 800218e:	4658      	mov	r0, fp
 8002190:	e8bd 8ff8 	ldmia.w	sp!, {r3, r4, r5, r6, r7, r8, r9, sl, fp, pc}
 8002194:	200012cc 	.word	0x200012cc
 8002198:	2000134c 	.word	0x2000134c
 800219c:	2000122c 	.word	0x2000122c
 80021a0:	20001230 	.word	0x20001230
 80021a4:	20001308 	.word	0x20001308
 80021a8:	20001304 	.word	0x20001304
 80021ac:	20001228 	.word	0x20001228
 80021b0:	20001234 	.word	0x20001234
 80021b4:	200012c8 	.word	0x200012c8
 80021b8:	20001350 	.word	0x20001350
 80021bc:	200012d4 	.word	0x200012d4

080021c0 <xTaskResumeAll>:
{
 80021c0:	e92d 43f8 	stmdb	sp!, {r3, r4, r5, r6, r7, r8, r9, lr}
	configASSERT( uxSchedulerSuspended );
 80021c4:	4c31      	ldr	r4, [pc, #196]	; (800228c <xTaskResumeAll+0xcc>)
 80021c6:	6823      	ldr	r3, [r4, #0]
 80021c8:	b943      	cbnz	r3, 80021dc <xTaskResumeAll+0x1c>
 80021ca:	f04f 0350 	mov.w	r3, #80	; 0x50
 80021ce:	f383 8811 	msr	BASEPRI, r3
 80021d2:	f3bf 8f6f 	isb	sy
 80021d6:	f3bf 8f4f 	dsb	sy
 80021da:	e7fe      	b.n	80021da <xTaskResumeAll+0x1a>
	taskENTER_CRITICAL();
 80021dc:	f7ff f9c2 	bl	8001564 <vPortEnterCritical>
		--uxSchedulerSuspended;
 80021e0:	6823      	ldr	r3, [r4, #0]
 80021e2:	3b01      	subs	r3, #1
 80021e4:	6023      	str	r3, [r4, #0]
		if( uxSchedulerSuspended == ( UBaseType_t ) pdFALSE )
 80021e6:	6824      	ldr	r4, [r4, #0]
 80021e8:	b12c      	cbz	r4, 80021f6 <xTaskResumeAll+0x36>
BaseType_t xAlreadyYielded = pdFALSE;
 80021ea:	2400      	movs	r4, #0
	taskEXIT_CRITICAL();
 80021ec:	f7ff f9dc 	bl	80015a8 <vPortExitCritical>
}
 80021f0:	4620      	mov	r0, r4
 80021f2:	e8bd 83f8 	ldmia.w	sp!, {r3, r4, r5, r6, r7, r8, r9, pc}
			if( uxCurrentNumberOfTasks > ( UBaseType_t ) 0U )
 80021f6:	4b26      	ldr	r3, [pc, #152]	; (8002290 <xTaskResumeAll+0xd0>)
 80021f8:	681b      	ldr	r3, [r3, #0]
 80021fa:	2b00      	cmp	r3, #0
 80021fc:	d0f5      	beq.n	80021ea <xTaskResumeAll+0x2a>
				while( listLIST_IS_EMPTY( &xPendingReadyList ) == pdFALSE )
 80021fe:	f8df 90a8 	ldr.w	r9, [pc, #168]	; 80022a8 <xTaskResumeAll+0xe8>
					prvAddTaskToReadyList( pxTCB );
 8002202:	4f24      	ldr	r7, [pc, #144]	; (8002294 <xTaskResumeAll+0xd4>)
 8002204:	f8df 80a4 	ldr.w	r8, [pc, #164]	; 80022ac <xTaskResumeAll+0xec>
				while( listLIST_IS_EMPTY( &xPendingReadyList ) == pdFALSE )
 8002208:	f8d9 3000 	ldr.w	r3, [r9]
 800220c:	b9e3      	cbnz	r3, 8002248 <xTaskResumeAll+0x88>
				if( pxTCB != NULL )
 800220e:	b10c      	cbz	r4, 8002214 <xTaskResumeAll+0x54>
					prvResetNextTaskUnblockTime();
 8002210:	f7ff fdce 	bl	8001db0 <prvResetNextTaskUnblockTime>
					UBaseType_t uxPendedCounts = uxPendedTicks; /* Non-volatile copy. */
 8002214:	4d20      	ldr	r5, [pc, #128]	; (8002298 <xTaskResumeAll+0xd8>)
 8002216:	682c      	ldr	r4, [r5, #0]
					if( uxPendedCounts > ( UBaseType_t ) 0U )
 8002218:	b144      	cbz	r4, 800222c <xTaskResumeAll+0x6c>
								xYieldPending = pdTRUE;
 800221a:	2701      	movs	r7, #1
 800221c:	4e1f      	ldr	r6, [pc, #124]	; (800229c <xTaskResumeAll+0xdc>)
							if( xTaskIncrementTick() != pdFALSE )
 800221e:	f7ff ff3d 	bl	800209c <xTaskIncrementTick>
 8002222:	b100      	cbz	r0, 8002226 <xTaskResumeAll+0x66>
								xYieldPending = pdTRUE;
 8002224:	6037      	str	r7, [r6, #0]
						} while( uxPendedCounts > ( UBaseType_t ) 0U );
 8002226:	3c01      	subs	r4, #1
 8002228:	d1f9      	bne.n	800221e <xTaskResumeAll+0x5e>
						uxPendedTicks = 0;
 800222a:	602c      	str	r4, [r5, #0]
				if( xYieldPending != pdFALSE )
 800222c:	4b1b      	ldr	r3, [pc, #108]	; (800229c <xTaskResumeAll+0xdc>)
 800222e:	681b      	ldr	r3, [r3, #0]
 8002230:	2b00      	cmp	r3, #0
 8002232:	d0da      	beq.n	80021ea <xTaskResumeAll+0x2a>
					taskYIELD_IF_USING_PREEMPTION();
 8002234:	f04f 5280 	mov.w	r2, #268435456	; 0x10000000
 8002238:	4b19      	ldr	r3, [pc, #100]	; (80022a0 <xTaskResumeAll+0xe0>)
 800223a:	601a      	str	r2, [r3, #0]
 800223c:	f3bf 8f4f 	dsb	sy
 8002240:	f3bf 8f6f 	isb	sy
						xAlreadyYielded = pdTRUE;
 8002244:	2401      	movs	r4, #1
 8002246:	e7d1      	b.n	80021ec <xTaskResumeAll+0x2c>
					pxTCB = ( TCB_t * ) listGET_OWNER_OF_HEAD_ENTRY( ( &xPendingReadyList ) );
 8002248:	f8d9 300c 	ldr.w	r3, [r9, #12]
					prvAddTaskToReadyList( pxTCB );
 800224c:	2501      	movs	r5, #1
					pxTCB = ( TCB_t * ) listGET_OWNER_OF_HEAD_ENTRY( ( &xPendingReadyList ) );
 800224e:	68dc      	ldr	r4, [r3, #12]
					( void ) uxListRemove( &( pxTCB->xStateListItem ) );
 8002250:	1d26      	adds	r6, r4, #4
					( void ) uxListRemove( &( pxTCB->xEventListItem ) );
 8002252:	f104 0018 	add.w	r0, r4, #24
 8002256:	f7ff f924 	bl	80014a2 <uxListRemove>
					( void ) uxListRemove( &( pxTCB->xStateListItem ) );
 800225a:	4630      	mov	r0, r6
 800225c:	f7ff f921 	bl	80014a2 <uxListRemove>
					prvAddTaskToReadyList( pxTCB );
 8002260:	2014      	movs	r0, #20
 8002262:	6ae2      	ldr	r2, [r4, #44]	; 0x2c
 8002264:	6839      	ldr	r1, [r7, #0]
 8002266:	fa05 f302 	lsl.w	r3, r5, r2
 800226a:	430b      	orrs	r3, r1
 800226c:	fb00 8002 	mla	r0, r0, r2, r8
 8002270:	4631      	mov	r1, r6
 8002272:	603b      	str	r3, [r7, #0]
 8002274:	f7ff f8f2 	bl	800145c <vListInsertEnd>
					if( pxTCB->uxPriority >= pxCurrentTCB->uxPriority )
 8002278:	4b0a      	ldr	r3, [pc, #40]	; (80022a4 <xTaskResumeAll+0xe4>)
 800227a:	6ae2      	ldr	r2, [r4, #44]	; 0x2c
 800227c:	681b      	ldr	r3, [r3, #0]
 800227e:	6adb      	ldr	r3, [r3, #44]	; 0x2c
 8002280:	429a      	cmp	r2, r3
						xYieldPending = pdTRUE;
 8002282:	bf24      	itt	cs
 8002284:	4b05      	ldrcs	r3, [pc, #20]	; (800229c <xTaskResumeAll+0xdc>)
 8002286:	601d      	strcs	r5, [r3, #0]
 8002288:	e7be      	b.n	8002208 <xTaskResumeAll+0x48>
 800228a:	bf00      	nop
 800228c:	200012cc 	.word	0x200012cc
 8002290:	200012c0 	.word	0x200012c0
 8002294:	200012d4 	.word	0x200012d4
 8002298:	200012c8 	.word	0x200012c8
 800229c:	20001350 	.word	0x20001350
 80022a0:	e000ed04 	.word	0xe000ed04
 80022a4:	20001228 	.word	0x20001228
 80022a8:	2000130c 	.word	0x2000130c
 80022ac:	20001234 	.word	0x20001234

080022b0 <vTaskDelay>:
	{
 80022b0:	b508      	push	{r3, lr}
		if( xTicksToDelay > ( TickType_t ) 0U )
 80022b2:	b940      	cbnz	r0, 80022c6 <vTaskDelay+0x16>
			portYIELD_WITHIN_API();
 80022b4:	f04f 5280 	mov.w	r2, #268435456	; 0x10000000
 80022b8:	4b0d      	ldr	r3, [pc, #52]	; (80022f0 <vTaskDelay+0x40>)
 80022ba:	601a      	str	r2, [r3, #0]
 80022bc:	f3bf 8f4f 	dsb	sy
 80022c0:	f3bf 8f6f 	isb	sy
 80022c4:	bd08      	pop	{r3, pc}
			configASSERT( uxSchedulerSuspended == 0 );
 80022c6:	4b0b      	ldr	r3, [pc, #44]	; (80022f4 <vTaskDelay+0x44>)
 80022c8:	6819      	ldr	r1, [r3, #0]
 80022ca:	b141      	cbz	r1, 80022de <vTaskDelay+0x2e>
 80022cc:	f04f 0350 	mov.w	r3, #80	; 0x50
 80022d0:	f383 8811 	msr	BASEPRI, r3
 80022d4:	f3bf 8f6f 	isb	sy
 80022d8:	f3bf 8f4f 	dsb	sy
 80022dc:	e7fe      	b.n	80022dc <vTaskDelay+0x2c>
			vTaskSuspendAll();
 80022de:	f7ff fed5 	bl	800208c <vTaskSuspendAll>
				prvAddCurrentTaskToDelayedList( xTicksToDelay, pdFALSE );
 80022e2:	f7ff fd77 	bl	8001dd4 <prvAddCurrentTaskToDelayedList>
			xAlreadyYielded = xTaskResumeAll();
 80022e6:	f7ff ff6b 	bl	80021c0 <xTaskResumeAll>
		if( xAlreadyYielded == pdFALSE )
 80022ea:	2800      	cmp	r0, #0
 80022ec:	d0e2      	beq.n	80022b4 <vTaskDelay+0x4>
 80022ee:	bd08      	pop	{r3, pc}
 80022f0:	e000ed04 	.word	0xe000ed04
 80022f4:	200012cc 	.word	0x200012cc

080022f8 <prvIdleTask>:
{
 80022f8:	b508      	push	{r3, lr}
				xListIsEmpty = listLIST_IS_EMPTY( &xTasksWaitingTermination );
 80022fa:	4e17      	ldr	r6, [pc, #92]	; (8002358 <prvIdleTask+0x60>)
		while( uxDeletedTasksWaitingCleanUp > ( UBaseType_t ) 0U )
 80022fc:	4c17      	ldr	r4, [pc, #92]	; (800235c <prvIdleTask+0x64>)
 80022fe:	6823      	ldr	r3, [r4, #0]
 8002300:	b963      	cbnz	r3, 800231c <prvIdleTask+0x24>
			if( listCURRENT_LIST_LENGTH( &( pxReadyTasksLists[ tskIDLE_PRIORITY ] ) ) > ( UBaseType_t ) 1 )
 8002302:	4b17      	ldr	r3, [pc, #92]	; (8002360 <prvIdleTask+0x68>)
 8002304:	681b      	ldr	r3, [r3, #0]
 8002306:	2b01      	cmp	r3, #1
 8002308:	d9f8      	bls.n	80022fc <prvIdleTask+0x4>
				taskYIELD();
 800230a:	f04f 5280 	mov.w	r2, #268435456	; 0x10000000
 800230e:	4b15      	ldr	r3, [pc, #84]	; (8002364 <prvIdleTask+0x6c>)
 8002310:	601a      	str	r2, [r3, #0]
 8002312:	f3bf 8f4f 	dsb	sy
 8002316:	f3bf 8f6f 	isb	sy
 800231a:	e7ef      	b.n	80022fc <prvIdleTask+0x4>
			vTaskSuspendAll();
 800231c:	f7ff feb6 	bl	800208c <vTaskSuspendAll>
				xListIsEmpty = listLIST_IS_EMPTY( &xTasksWaitingTermination );
 8002320:	6835      	ldr	r5, [r6, #0]
			( void ) xTaskResumeAll();
 8002322:	f7ff ff4d 	bl	80021c0 <xTaskResumeAll>
			if( xListIsEmpty == pdFALSE )
 8002326:	2d00      	cmp	r5, #0
 8002328:	d0e9      	beq.n	80022fe <prvIdleTask+0x6>
				taskENTER_CRITICAL();
 800232a:	f7ff f91b 	bl	8001564 <vPortEnterCritical>
					pxTCB = ( TCB_t * ) listGET_OWNER_OF_HEAD_ENTRY( ( &xTasksWaitingTermination ) );
 800232e:	68f3      	ldr	r3, [r6, #12]
 8002330:	68dd      	ldr	r5, [r3, #12]
					( void ) uxListRemove( &( pxTCB->xStateListItem ) );
 8002332:	1d28      	adds	r0, r5, #4
 8002334:	f7ff f8b5 	bl	80014a2 <uxListRemove>
					--uxCurrentNumberOfTasks;
 8002338:	4a0b      	ldr	r2, [pc, #44]	; (8002368 <prvIdleTask+0x70>)
 800233a:	6813      	ldr	r3, [r2, #0]
 800233c:	3b01      	subs	r3, #1
 800233e:	6013      	str	r3, [r2, #0]
					--uxDeletedTasksWaitingCleanUp;
 8002340:	6823      	ldr	r3, [r4, #0]
 8002342:	3b01      	subs	r3, #1
 8002344:	6023      	str	r3, [r4, #0]
				taskEXIT_CRITICAL();
 8002346:	f7ff f92f 	bl	80015a8 <vPortExitCritical>
			vPortFree( pxTCB->pxStack );
 800234a:	6b28      	ldr	r0, [r5, #48]	; 0x30
 800234c:	f7ff fa88 	bl	8001860 <vPortFree>
			vPortFree( pxTCB );
 8002350:	4628      	mov	r0, r5
 8002352:	f7ff fa85 	bl	8001860 <vPortFree>
 8002356:	e7d2      	b.n	80022fe <prvIdleTask+0x6>
 8002358:	20001338 	.word	0x20001338
 800235c:	200012c4 	.word	0x200012c4
 8002360:	20001234 	.word	0x20001234
 8002364:	e000ed04 	.word	0xe000ed04
 8002368:	200012c0 	.word	0x200012c0

0800236c <vTaskSwitchContext>:
	if( uxSchedulerSuspended != ( UBaseType_t ) pdFALSE )
 800236c:	4b17      	ldr	r3, [pc, #92]	; (80023cc <vTaskSwitchContext+0x60>)
{
 800236e:	b510      	push	{r4, lr}
	if( uxSchedulerSuspended != ( UBaseType_t ) pdFALSE )
 8002370:	681a      	ldr	r2, [r3, #0]
 8002372:	4b17      	ldr	r3, [pc, #92]	; (80023d0 <vTaskSwitchContext+0x64>)
 8002374:	b112      	cbz	r2, 800237c <vTaskSwitchContext+0x10>
		xYieldPending = pdTRUE;
 8002376:	2201      	movs	r2, #1
		taskSELECT_HIGHEST_PRIORITY_TASK();
 8002378:	601a      	str	r2, [r3, #0]
 800237a:	bd10      	pop	{r4, pc}
		xYieldPending = pdFALSE;
 800237c:	601a      	str	r2, [r3, #0]
		taskSELECT_HIGHEST_PRIORITY_TASK();
 800237e:	4b15      	ldr	r3, [pc, #84]	; (80023d4 <vTaskSwitchContext+0x68>)
 8002380:	681b      	ldr	r3, [r3, #0]
		__asm volatile ( "clz %0, %1" : "=r" ( ucReturn ) : "r" ( ulBitmap ) );
 8002382:	fab3 f383 	clz	r3, r3
 8002386:	2214      	movs	r2, #20
 8002388:	b2db      	uxtb	r3, r3
 800238a:	f1c3 031f 	rsb	r3, r3, #31
 800238e:	435a      	muls	r2, r3
 8002390:	4911      	ldr	r1, [pc, #68]	; (80023d8 <vTaskSwitchContext+0x6c>)
 8002392:	588c      	ldr	r4, [r1, r2]
 8002394:	1888      	adds	r0, r1, r2
 8002396:	b944      	cbnz	r4, 80023aa <vTaskSwitchContext+0x3e>
	__asm volatile
 8002398:	f04f 0350 	mov.w	r3, #80	; 0x50
 800239c:	f383 8811 	msr	BASEPRI, r3
 80023a0:	f3bf 8f6f 	isb	sy
 80023a4:	f3bf 8f4f 	dsb	sy
 80023a8:	e7fe      	b.n	80023a8 <vTaskSwitchContext+0x3c>
 80023aa:	6844      	ldr	r4, [r0, #4]
 80023ac:	3208      	adds	r2, #8
 80023ae:	6864      	ldr	r4, [r4, #4]
 80023b0:	440a      	add	r2, r1
 80023b2:	4294      	cmp	r4, r2
 80023b4:	bf08      	it	eq
 80023b6:	6862      	ldreq	r2, [r4, #4]
 80023b8:	6044      	str	r4, [r0, #4]
 80023ba:	bf08      	it	eq
 80023bc:	6042      	streq	r2, [r0, #4]
 80023be:	2214      	movs	r2, #20
 80023c0:	fb02 1303 	mla	r3, r2, r3, r1
 80023c4:	685b      	ldr	r3, [r3, #4]
 80023c6:	68da      	ldr	r2, [r3, #12]
 80023c8:	4b04      	ldr	r3, [pc, #16]	; (80023dc <vTaskSwitchContext+0x70>)
 80023ca:	e7d5      	b.n	8002378 <vTaskSwitchContext+0xc>
 80023cc:	200012cc 	.word	0x200012cc
 80023d0:	20001350 	.word	0x20001350
 80023d4:	200012d4 	.word	0x200012d4
 80023d8:	20001234 	.word	0x20001234
 80023dc:	20001228 	.word	0x20001228

080023e0 <vTaskPlaceOnEventList>:
{
 80023e0:	b510      	push	{r4, lr}
 80023e2:	460c      	mov	r4, r1
	configASSERT( pxEventList );
 80023e4:	b940      	cbnz	r0, 80023f8 <vTaskPlaceOnEventList+0x18>
 80023e6:	f04f 0350 	mov.w	r3, #80	; 0x50
 80023ea:	f383 8811 	msr	BASEPRI, r3
 80023ee:	f3bf 8f6f 	isb	sy
 80023f2:	f3bf 8f4f 	dsb	sy
 80023f6:	e7fe      	b.n	80023f6 <vTaskPlaceOnEventList+0x16>
	vListInsert( pxEventList, &( pxCurrentTCB->xEventListItem ) );
 80023f8:	4b05      	ldr	r3, [pc, #20]	; (8002410 <vTaskPlaceOnEventList+0x30>)
 80023fa:	6819      	ldr	r1, [r3, #0]
 80023fc:	3118      	adds	r1, #24
 80023fe:	f7ff f839 	bl	8001474 <vListInsert>
	prvAddCurrentTaskToDelayedList( xTicksToWait, pdTRUE );
 8002402:	4620      	mov	r0, r4
}
 8002404:	e8bd 4010 	ldmia.w	sp!, {r4, lr}
	prvAddCurrentTaskToDelayedList( xTicksToWait, pdTRUE );
 8002408:	2101      	movs	r1, #1
 800240a:	f7ff bce3 	b.w	8001dd4 <prvAddCurrentTaskToDelayedList>
 800240e:	bf00      	nop
 8002410:	20001228 	.word	0x20001228

08002414 <xTaskRemoveFromEventList>:
{
 8002414:	b538      	push	{r3, r4, r5, lr}
	pxUnblockedTCB = ( TCB_t * ) listGET_OWNER_OF_HEAD_ENTRY( pxEventList );
 8002416:	68c3      	ldr	r3, [r0, #12]
 8002418:	68dc      	ldr	r4, [r3, #12]
	configASSERT( pxUnblockedTCB );
 800241a:	b944      	cbnz	r4, 800242e <xTaskRemoveFromEventList+0x1a>
 800241c:	f04f 0350 	mov.w	r3, #80	; 0x50
 8002420:	f383 8811 	msr	BASEPRI, r3
 8002424:	f3bf 8f6f 	isb	sy
 8002428:	f3bf 8f4f 	dsb	sy
 800242c:	e7fe      	b.n	800242c <xTaskRemoveFromEventList+0x18>
	( void ) uxListRemove( &( pxUnblockedTCB->xEventListItem ) );
 800242e:	f104 0518 	add.w	r5, r4, #24
 8002432:	4628      	mov	r0, r5
 8002434:	f7ff f835 	bl	80014a2 <uxListRemove>
	if( uxSchedulerSuspended == ( UBaseType_t ) pdFALSE )
 8002438:	4b11      	ldr	r3, [pc, #68]	; (8002480 <xTaskRemoveFromEventList+0x6c>)
 800243a:	681b      	ldr	r3, [r3, #0]
 800243c:	b9e3      	cbnz	r3, 8002478 <xTaskRemoveFromEventList+0x64>
		( void ) uxListRemove( &( pxUnblockedTCB->xStateListItem ) );
 800243e:	1d25      	adds	r5, r4, #4
 8002440:	4628      	mov	r0, r5
 8002442:	f7ff f82e 	bl	80014a2 <uxListRemove>
		prvAddTaskToReadyList( pxUnblockedTCB );
 8002446:	2301      	movs	r3, #1
 8002448:	490e      	ldr	r1, [pc, #56]	; (8002484 <xTaskRemoveFromEventList+0x70>)
 800244a:	6ae2      	ldr	r2, [r4, #44]	; 0x2c
 800244c:	6808      	ldr	r0, [r1, #0]
 800244e:	4093      	lsls	r3, r2
 8002450:	4303      	orrs	r3, r0
 8002452:	2014      	movs	r0, #20
 8002454:	600b      	str	r3, [r1, #0]
 8002456:	4629      	mov	r1, r5
 8002458:	4b0b      	ldr	r3, [pc, #44]	; (8002488 <xTaskRemoveFromEventList+0x74>)
 800245a:	fb00 3002 	mla	r0, r0, r2, r3
		vListInsertEnd( &( xPendingReadyList ), &( pxUnblockedTCB->xEventListItem ) );
 800245e:	f7fe fffd 	bl	800145c <vListInsertEnd>
	if( pxUnblockedTCB->uxPriority > pxCurrentTCB->uxPriority )
 8002462:	4b0a      	ldr	r3, [pc, #40]	; (800248c <xTaskRemoveFromEventList+0x78>)
 8002464:	6ae2      	ldr	r2, [r4, #44]	; 0x2c
 8002466:	681b      	ldr	r3, [r3, #0]
 8002468:	6adb      	ldr	r3, [r3, #44]	; 0x2c
 800246a:	429a      	cmp	r2, r3
		xYieldPending = pdTRUE;
 800246c:	bf85      	ittet	hi
 800246e:	2001      	movhi	r0, #1
 8002470:	4b07      	ldrhi	r3, [pc, #28]	; (8002490 <xTaskRemoveFromEventList+0x7c>)
		xReturn = pdFALSE;
 8002472:	2000      	movls	r0, #0
		xYieldPending = pdTRUE;
 8002474:	6018      	strhi	r0, [r3, #0]
}
 8002476:	bd38      	pop	{r3, r4, r5, pc}
		vListInsertEnd( &( xPendingReadyList ), &( pxUnblockedTCB->xEventListItem ) );
 8002478:	4629      	mov	r1, r5
 800247a:	4806      	ldr	r0, [pc, #24]	; (8002494 <xTaskRemoveFromEventList+0x80>)
 800247c:	e7ef      	b.n	800245e <xTaskRemoveFromEventList+0x4a>
 800247e:	bf00      	nop
 8002480:	200012cc 	.word	0x200012cc
 8002484:	200012d4 	.word	0x200012d4
 8002488:	20001234 	.word	0x20001234
 800248c:	20001228 	.word	0x20001228
 8002490:	20001350 	.word	0x20001350
 8002494:	2000130c 	.word	0x2000130c

08002498 <vTaskSetTimeOutState>:
{
 8002498:	b508      	push	{r3, lr}
	configASSERT( pxTimeOut );
 800249a:	b908      	cbnz	r0, 80024a0 <vTaskSetTimeOutState+0x8>
 800249c:	f7ff fce0 	bl	8001e60 <prvTaskIsTaskSuspended.part.0>
	pxTimeOut->xOverflowCount = xNumOfOverflows;
 80024a0:	4b03      	ldr	r3, [pc, #12]	; (80024b0 <vTaskSetTimeOutState+0x18>)
 80024a2:	681b      	ldr	r3, [r3, #0]
 80024a4:	6003      	str	r3, [r0, #0]
	pxTimeOut->xTimeOnEntering = xTickCount;
 80024a6:	4b03      	ldr	r3, [pc, #12]	; (80024b4 <vTaskSetTimeOutState+0x1c>)
 80024a8:	681b      	ldr	r3, [r3, #0]
 80024aa:	6043      	str	r3, [r0, #4]
 80024ac:	bd08      	pop	{r3, pc}
 80024ae:	bf00      	nop
 80024b0:	20001308 	.word	0x20001308
 80024b4:	2000134c 	.word	0x2000134c

080024b8 <xTaskCheckForTimeOut>:
{
 80024b8:	b538      	push	{r3, r4, r5, lr}
 80024ba:	460d      	mov	r5, r1
	configASSERT( pxTimeOut );
 80024bc:	4604      	mov	r4, r0
 80024be:	b940      	cbnz	r0, 80024d2 <xTaskCheckForTimeOut+0x1a>
 80024c0:	f04f 0350 	mov.w	r3, #80	; 0x50
 80024c4:	f383 8811 	msr	BASEPRI, r3
 80024c8:	f3bf 8f6f 	isb	sy
 80024cc:	f3bf 8f4f 	dsb	sy
 80024d0:	e7fe      	b.n	80024d0 <xTaskCheckForTimeOut+0x18>
	configASSERT( pxTicksToWait );
 80024d2:	b941      	cbnz	r1, 80024e6 <xTaskCheckForTimeOut+0x2e>
 80024d4:	f04f 0350 	mov.w	r3, #80	; 0x50
 80024d8:	f383 8811 	msr	BASEPRI, r3
 80024dc:	f3bf 8f6f 	isb	sy
 80024e0:	f3bf 8f4f 	dsb	sy
 80024e4:	e7fe      	b.n	80024e4 <xTaskCheckForTimeOut+0x2c>
	taskENTER_CRITICAL();
 80024e6:	f7ff f83d 	bl	8001564 <vPortEnterCritical>
		const TickType_t xConstTickCount = xTickCount;
 80024ea:	4b0e      	ldr	r3, [pc, #56]	; (8002524 <xTaskCheckForTimeOut+0x6c>)
 80024ec:	6819      	ldr	r1, [r3, #0]
			if( *pxTicksToWait == portMAX_DELAY )
 80024ee:	682b      	ldr	r3, [r5, #0]
 80024f0:	1c5a      	adds	r2, r3, #1
 80024f2:	d010      	beq.n	8002516 <xTaskCheckForTimeOut+0x5e>
		if( ( xNumOfOverflows != pxTimeOut->xOverflowCount ) && ( xConstTickCount >= pxTimeOut->xTimeOnEntering ) ) /*lint !e525 Indentation preferred as is to make code within pre-processor directives clearer. */
 80024f4:	4a0c      	ldr	r2, [pc, #48]	; (8002528 <xTaskCheckForTimeOut+0x70>)
 80024f6:	6820      	ldr	r0, [r4, #0]
 80024f8:	6812      	ldr	r2, [r2, #0]
 80024fa:	4290      	cmp	r0, r2
 80024fc:	6862      	ldr	r2, [r4, #4]
 80024fe:	d001      	beq.n	8002504 <xTaskCheckForTimeOut+0x4c>
 8002500:	4291      	cmp	r1, r2
 8002502:	d20d      	bcs.n	8002520 <xTaskCheckForTimeOut+0x68>
		else if( ( ( TickType_t ) ( xConstTickCount - pxTimeOut->xTimeOnEntering ) ) < *pxTicksToWait ) /*lint !e961 Explicit casting is only redundant with some compilers, whereas others require it to prevent integer conversion errors. */
 8002504:	1a88      	subs	r0, r1, r2
 8002506:	4283      	cmp	r3, r0
 8002508:	d90a      	bls.n	8002520 <xTaskCheckForTimeOut+0x68>
			*pxTicksToWait -= ( xConstTickCount - pxTimeOut->xTimeOnEntering );
 800250a:	1a5b      	subs	r3, r3, r1
 800250c:	4413      	add	r3, r2
 800250e:	602b      	str	r3, [r5, #0]
			vTaskSetTimeOutState( pxTimeOut );
 8002510:	4620      	mov	r0, r4
 8002512:	f7ff ffc1 	bl	8002498 <vTaskSetTimeOutState>
				xReturn = pdFALSE;
 8002516:	2400      	movs	r4, #0
	taskEXIT_CRITICAL();
 8002518:	f7ff f846 	bl	80015a8 <vPortExitCritical>
}
 800251c:	4620      	mov	r0, r4
 800251e:	bd38      	pop	{r3, r4, r5, pc}
			xReturn = pdTRUE;
 8002520:	2401      	movs	r4, #1
 8002522:	e7f9      	b.n	8002518 <xTaskCheckForTimeOut+0x60>
 8002524:	2000134c 	.word	0x2000134c
 8002528:	20001308 	.word	0x20001308

0800252c <vTaskMissedYield>:
	xYieldPending = pdTRUE;
 800252c:	2201      	movs	r2, #1
 800252e:	4b01      	ldr	r3, [pc, #4]	; (8002534 <vTaskMissedYield+0x8>)
 8002530:	601a      	str	r2, [r3, #0]
 8002532:	4770      	bx	lr
 8002534:	20001350 	.word	0x20001350

08002538 <xTaskGetSchedulerState>:
		if( xSchedulerRunning == pdFALSE )
 8002538:	4b05      	ldr	r3, [pc, #20]	; (8002550 <xTaskGetSchedulerState+0x18>)
 800253a:	681b      	ldr	r3, [r3, #0]
 800253c:	b133      	cbz	r3, 800254c <xTaskGetSchedulerState+0x14>
			if( uxSchedulerSuspended == ( UBaseType_t ) pdFALSE )
 800253e:	4b05      	ldr	r3, [pc, #20]	; (8002554 <xTaskGetSchedulerState+0x1c>)
 8002540:	681b      	ldr	r3, [r3, #0]
 8002542:	2b00      	cmp	r3, #0
				xReturn = taskSCHEDULER_SUSPENDED;
 8002544:	bf0c      	ite	eq
 8002546:	2002      	moveq	r0, #2
 8002548:	2000      	movne	r0, #0
 800254a:	4770      	bx	lr
			xReturn = taskSCHEDULER_NOT_STARTED;
 800254c:	2001      	movs	r0, #1
	}
 800254e:	4770      	bx	lr
 8002550:	20001320 	.word	0x20001320
 8002554:	200012cc 	.word	0x200012cc

08002558 <vTaskPriorityInherit>:
	{
 8002558:	e92d 41f0 	stmdb	sp!, {r4, r5, r6, r7, r8, lr}
		if( pxMutexHolder != NULL )
 800255c:	4604      	mov	r4, r0
 800255e:	2800      	cmp	r0, #0
 8002560:	d039      	beq.n	80025d6 <vTaskPriorityInherit+0x7e>
			if( pxTCB->uxPriority < pxCurrentTCB->uxPriority )
 8002562:	4d1e      	ldr	r5, [pc, #120]	; (80025dc <vTaskPriorityInherit+0x84>)
 8002564:	6ac3      	ldr	r3, [r0, #44]	; 0x2c
 8002566:	682a      	ldr	r2, [r5, #0]
 8002568:	6ad2      	ldr	r2, [r2, #44]	; 0x2c
 800256a:	4293      	cmp	r3, r2
 800256c:	d233      	bcs.n	80025d6 <vTaskPriorityInherit+0x7e>
				if( listIS_CONTAINED_WITHIN( &( pxReadyTasksLists[ pxTCB->uxPriority ] ), &( pxTCB->xStateListItem ) ) != pdFALSE )
 800256e:	2714      	movs	r7, #20
				if( ( listGET_LIST_ITEM_VALUE( &( pxTCB->xEventListItem ) ) & taskEVENT_LIST_ITEM_VALUE_IN_USE ) == 0UL )
 8002570:	6982      	ldr	r2, [r0, #24]
				if( listIS_CONTAINED_WITHIN( &( pxReadyTasksLists[ pxTCB->uxPriority ] ), &( pxTCB->xStateListItem ) ) != pdFALSE )
 8002572:	4e1b      	ldr	r6, [pc, #108]	; (80025e0 <vTaskPriorityInherit+0x88>)
				if( ( listGET_LIST_ITEM_VALUE( &( pxTCB->xEventListItem ) ) & taskEVENT_LIST_ITEM_VALUE_IN_USE ) == 0UL )
 8002574:	2a00      	cmp	r2, #0
					listSET_LIST_ITEM_VALUE( &( pxTCB->xEventListItem ), ( TickType_t ) configMAX_PRIORITIES - ( TickType_t ) pxCurrentTCB->uxPriority ); /*lint !e961 MISRA exception as the casts are only redundant for some ports. */
 8002576:	bfa8      	it	ge
 8002578:	682a      	ldrge	r2, [r5, #0]
				if( listIS_CONTAINED_WITHIN( &( pxReadyTasksLists[ pxTCB->uxPriority ] ), &( pxTCB->xStateListItem ) ) != pdFALSE )
 800257a:	fb07 6303 	mla	r3, r7, r3, r6
					listSET_LIST_ITEM_VALUE( &( pxTCB->xEventListItem ), ( TickType_t ) configMAX_PRIORITIES - ( TickType_t ) pxCurrentTCB->uxPriority ); /*lint !e961 MISRA exception as the casts are only redundant for some ports. */
 800257e:	bfa2      	ittt	ge
 8002580:	6ad2      	ldrge	r2, [r2, #44]	; 0x2c
 8002582:	f1c2 0207 	rsbge	r2, r2, #7
 8002586:	6182      	strge	r2, [r0, #24]
				if( listIS_CONTAINED_WITHIN( &( pxReadyTasksLists[ pxTCB->uxPriority ] ), &( pxTCB->xStateListItem ) ) != pdFALSE )
 8002588:	6942      	ldr	r2, [r0, #20]
 800258a:	429a      	cmp	r2, r3
 800258c:	d120      	bne.n	80025d0 <vTaskPriorityInherit+0x78>
					if( uxListRemove( &( pxTCB->xStateListItem ) ) == ( UBaseType_t ) 0 )
 800258e:	f100 0804 	add.w	r8, r0, #4
 8002592:	4640      	mov	r0, r8
 8002594:	f7fe ff85 	bl	80014a2 <uxListRemove>
 8002598:	4a12      	ldr	r2, [pc, #72]	; (80025e4 <vTaskPriorityInherit+0x8c>)
 800259a:	b948      	cbnz	r0, 80025b0 <vTaskPriorityInherit+0x58>
						taskRESET_READY_PRIORITY( pxTCB->uxPriority );
 800259c:	6ae0      	ldr	r0, [r4, #44]	; 0x2c
 800259e:	4347      	muls	r7, r0
 80025a0:	59f3      	ldr	r3, [r6, r7]
 80025a2:	b92b      	cbnz	r3, 80025b0 <vTaskPriorityInherit+0x58>
 80025a4:	2101      	movs	r1, #1
 80025a6:	6813      	ldr	r3, [r2, #0]
 80025a8:	4081      	lsls	r1, r0
 80025aa:	ea23 0301 	bic.w	r3, r3, r1
 80025ae:	6013      	str	r3, [r2, #0]
					pxTCB->uxPriority = pxCurrentTCB->uxPriority;
 80025b0:	682b      	ldr	r3, [r5, #0]
					prvAddTaskToReadyList( pxTCB );
 80025b2:	6811      	ldr	r1, [r2, #0]
					pxTCB->uxPriority = pxCurrentTCB->uxPriority;
 80025b4:	6ad8      	ldr	r0, [r3, #44]	; 0x2c
					prvAddTaskToReadyList( pxTCB );
 80025b6:	2301      	movs	r3, #1
 80025b8:	4083      	lsls	r3, r0
 80025ba:	430b      	orrs	r3, r1
 80025bc:	6013      	str	r3, [r2, #0]
 80025be:	2314      	movs	r3, #20
					pxTCB->uxPriority = pxCurrentTCB->uxPriority;
 80025c0:	62e0      	str	r0, [r4, #44]	; 0x2c
					prvAddTaskToReadyList( pxTCB );
 80025c2:	4641      	mov	r1, r8
 80025c4:	fb03 6000 	mla	r0, r3, r0, r6
	}
 80025c8:	e8bd 41f0 	ldmia.w	sp!, {r4, r5, r6, r7, r8, lr}
					prvAddTaskToReadyList( pxTCB );
 80025cc:	f7fe bf46 	b.w	800145c <vListInsertEnd>
					pxTCB->uxPriority = pxCurrentTCB->uxPriority;
 80025d0:	682b      	ldr	r3, [r5, #0]
 80025d2:	6adb      	ldr	r3, [r3, #44]	; 0x2c
 80025d4:	62c3      	str	r3, [r0, #44]	; 0x2c
 80025d6:	e8bd 81f0 	ldmia.w	sp!, {r4, r5, r6, r7, r8, pc}
 80025da:	bf00      	nop
 80025dc:	20001228 	.word	0x20001228
 80025e0:	20001234 	.word	0x20001234
 80025e4:	200012d4 	.word	0x200012d4

080025e8 <xTaskPriorityDisinherit>:
	{
 80025e8:	b5f8      	push	{r3, r4, r5, r6, r7, lr}
		if( pxMutexHolder != NULL )
 80025ea:	4604      	mov	r4, r0
 80025ec:	b908      	cbnz	r0, 80025f2 <xTaskPriorityDisinherit+0xa>
	BaseType_t xReturn = pdFALSE;
 80025ee:	2000      	movs	r0, #0
 80025f0:	bdf8      	pop	{r3, r4, r5, r6, r7, pc}
			configASSERT( pxTCB == pxCurrentTCB );
 80025f2:	4b22      	ldr	r3, [pc, #136]	; (800267c <xTaskPriorityDisinherit+0x94>)
 80025f4:	681b      	ldr	r3, [r3, #0]
 80025f6:	4298      	cmp	r0, r3
 80025f8:	d008      	beq.n	800260c <xTaskPriorityDisinherit+0x24>
 80025fa:	f04f 0350 	mov.w	r3, #80	; 0x50
 80025fe:	f383 8811 	msr	BASEPRI, r3
 8002602:	f3bf 8f6f 	isb	sy
 8002606:	f3bf 8f4f 	dsb	sy
 800260a:	e7fe      	b.n	800260a <xTaskPriorityDisinherit+0x22>
			configASSERT( pxTCB->uxMutexesHeld );
 800260c:	6c83      	ldr	r3, [r0, #72]	; 0x48
 800260e:	b943      	cbnz	r3, 8002622 <xTaskPriorityDisinherit+0x3a>
 8002610:	f04f 0350 	mov.w	r3, #80	; 0x50
 8002614:	f383 8811 	msr	BASEPRI, r3
 8002618:	f3bf 8f6f 	isb	sy
 800261c:	f3bf 8f4f 	dsb	sy
 8002620:	e7fe      	b.n	8002620 <xTaskPriorityDisinherit+0x38>
			if( pxTCB->uxPriority != pxTCB->uxBasePriority )
 8002622:	6ac1      	ldr	r1, [r0, #44]	; 0x2c
 8002624:	6c42      	ldr	r2, [r0, #68]	; 0x44
			( pxTCB->uxMutexesHeld )--;
 8002626:	3b01      	subs	r3, #1
			if( pxTCB->uxPriority != pxTCB->uxBasePriority )
 8002628:	4291      	cmp	r1, r2
			( pxTCB->uxMutexesHeld )--;
 800262a:	6483      	str	r3, [r0, #72]	; 0x48
			if( pxTCB->uxPriority != pxTCB->uxBasePriority )
 800262c:	d0df      	beq.n	80025ee <xTaskPriorityDisinherit+0x6>
				if( pxTCB->uxMutexesHeld == ( UBaseType_t ) 0 )
 800262e:	2b00      	cmp	r3, #0
 8002630:	d1dd      	bne.n	80025ee <xTaskPriorityDisinherit+0x6>
					if( uxListRemove( &( pxTCB->xStateListItem ) ) == ( UBaseType_t ) 0 )
 8002632:	1d05      	adds	r5, r0, #4
 8002634:	4628      	mov	r0, r5
 8002636:	f7fe ff34 	bl	80014a2 <uxListRemove>
 800263a:	4e11      	ldr	r6, [pc, #68]	; (8002680 <xTaskPriorityDisinherit+0x98>)
 800263c:	4a11      	ldr	r2, [pc, #68]	; (8002684 <xTaskPriorityDisinherit+0x9c>)
 800263e:	b950      	cbnz	r0, 8002656 <xTaskPriorityDisinherit+0x6e>
						taskRESET_READY_PRIORITY( pxTCB->uxPriority );
 8002640:	2114      	movs	r1, #20
 8002642:	6ae7      	ldr	r7, [r4, #44]	; 0x2c
 8002644:	4379      	muls	r1, r7
 8002646:	5873      	ldr	r3, [r6, r1]
 8002648:	b92b      	cbnz	r3, 8002656 <xTaskPriorityDisinherit+0x6e>
 800264a:	2001      	movs	r0, #1
 800264c:	6813      	ldr	r3, [r2, #0]
 800264e:	40b8      	lsls	r0, r7
 8002650:	ea23 0300 	bic.w	r3, r3, r0
 8002654:	6013      	str	r3, [r2, #0]
					pxTCB->uxPriority = pxTCB->uxBasePriority;
 8002656:	6c63      	ldr	r3, [r4, #68]	; 0x44
					listSET_LIST_ITEM_VALUE( &( pxTCB->xEventListItem ), ( TickType_t ) configMAX_PRIORITIES - ( TickType_t ) pxTCB->uxPriority ); /*lint !e961 MISRA exception as the casts are only redundant for some ports. */
 8002658:	f1c3 0107 	rsb	r1, r3, #7
					pxTCB->uxPriority = pxTCB->uxBasePriority;
 800265c:	62e3      	str	r3, [r4, #44]	; 0x2c
					listSET_LIST_ITEM_VALUE( &( pxTCB->xEventListItem ), ( TickType_t ) configMAX_PRIORITIES - ( TickType_t ) pxTCB->uxPriority ); /*lint !e961 MISRA exception as the casts are only redundant for some ports. */
 800265e:	61a1      	str	r1, [r4, #24]
					prvAddTaskToReadyList( pxTCB );
 8002660:	2401      	movs	r4, #1
 8002662:	6811      	ldr	r1, [r2, #0]
 8002664:	fa04 f003 	lsl.w	r0, r4, r3
 8002668:	4308      	orrs	r0, r1
 800266a:	6010      	str	r0, [r2, #0]
 800266c:	2014      	movs	r0, #20
 800266e:	4629      	mov	r1, r5
 8002670:	fb00 6003 	mla	r0, r0, r3, r6
 8002674:	f7fe fef2 	bl	800145c <vListInsertEnd>
					xReturn = pdTRUE;
 8002678:	4620      	mov	r0, r4
	}
 800267a:	bdf8      	pop	{r3, r4, r5, r6, r7, pc}
 800267c:	20001228 	.word	0x20001228
 8002680:	20001234 	.word	0x20001234
 8002684:	200012d4 	.word	0x200012d4

08002688 <pvTaskIncrementMutexHeldCount>:
		if( pxCurrentTCB != NULL )
 8002688:	4b04      	ldr	r3, [pc, #16]	; (800269c <pvTaskIncrementMutexHeldCount+0x14>)
 800268a:	681a      	ldr	r2, [r3, #0]
 800268c:	b11a      	cbz	r2, 8002696 <pvTaskIncrementMutexHeldCount+0xe>
			( pxCurrentTCB->uxMutexesHeld )++;
 800268e:	6819      	ldr	r1, [r3, #0]
 8002690:	6c8a      	ldr	r2, [r1, #72]	; 0x48
 8002692:	3201      	adds	r2, #1
 8002694:	648a      	str	r2, [r1, #72]	; 0x48
		return pxCurrentTCB;
 8002696:	6818      	ldr	r0, [r3, #0]
	}
 8002698:	4770      	bx	lr
 800269a:	bf00      	nop
 800269c:	20001228 	.word	0x20001228

080026a0 <delay>:
#include "delay.h"

void delay(uint16_t value)
{
	LL_mDelay(value);
 80026a0:	f7fe be8e 	b.w	80013c0 <LL_mDelay>

080026a4 <get_sys_tick>:
}

uint32_t get_sys_tick(void)
{
	return SysTick->VAL;
 80026a4:	4b01      	ldr	r3, [pc, #4]	; (80026ac <get_sys_tick+0x8>)
 80026a6:	6898      	ldr	r0, [r3, #8]
}
 80026a8:	4770      	bx	lr
 80026aa:	bf00      	nop
 80026ac:	e000e010 	.word	0xe000e010

080026b0 <NVIC_EncodePriority.constprop.1>:
  uint32_t PriorityGroupTmp = (PriorityGroup & (uint32_t)0x07UL);   /* only values 0..7 are used          */
 80026b0:	f000 0007 	and.w	r0, r0, #7
  PreemptPriorityBits = ((7UL - PriorityGroupTmp) > (uint32_t)(__NVIC_PRIO_BITS)) ? (uint32_t)(__NVIC_PRIO_BITS) : (uint32_t)(7UL - PriorityGroupTmp);
 80026b4:	f1c0 0207 	rsb	r2, r0, #7
  SubPriorityBits     = ((PriorityGroupTmp + (uint32_t)(__NVIC_PRIO_BITS)) < (uint32_t)7UL) ? (uint32_t)0UL : (uint32_t)((PriorityGroupTmp - 7UL) + (uint32_t)(__NVIC_PRIO_BITS));
 80026b8:	1d03      	adds	r3, r0, #4
  PreemptPriorityBits = ((7UL - PriorityGroupTmp) > (uint32_t)(__NVIC_PRIO_BITS)) ? (uint32_t)(__NVIC_PRIO_BITS) : (uint32_t)(7UL - PriorityGroupTmp);
 80026ba:	2a04      	cmp	r2, #4
 80026bc:	bf28      	it	cs
 80026be:	2204      	movcs	r2, #4
  SubPriorityBits     = ((PriorityGroupTmp + (uint32_t)(__NVIC_PRIO_BITS)) < (uint32_t)7UL) ? (uint32_t)0UL : (uint32_t)((PriorityGroupTmp - 7UL) + (uint32_t)(__NVIC_PRIO_BITS));
 80026c0:	2b06      	cmp	r3, #6
           ((PreemptPriority & (uint32_t)((1UL << (PreemptPriorityBits)) - 1UL)) << SubPriorityBits) |
 80026c2:	f04f 0301 	mov.w	r3, #1
  SubPriorityBits     = ((PriorityGroupTmp + (uint32_t)(__NVIC_PRIO_BITS)) < (uint32_t)7UL) ? (uint32_t)0UL : (uint32_t)((PriorityGroupTmp - 7UL) + (uint32_t)(__NVIC_PRIO_BITS));
 80026c6:	bf98      	it	ls
 80026c8:	2000      	movls	r0, #0
           ((PreemptPriority & (uint32_t)((1UL << (PreemptPriorityBits)) - 1UL)) << SubPriorityBits) |
 80026ca:	fa03 f302 	lsl.w	r3, r3, r2
 80026ce:	f103 33ff 	add.w	r3, r3, #4294967295
  SubPriorityBits     = ((PriorityGroupTmp + (uint32_t)(__NVIC_PRIO_BITS)) < (uint32_t)7UL) ? (uint32_t)0UL : (uint32_t)((PriorityGroupTmp - 7UL) + (uint32_t)(__NVIC_PRIO_BITS));
 80026d2:	bf88      	it	hi
 80026d4:	3803      	subhi	r0, #3
           ((PreemptPriority & (uint32_t)((1UL << (PreemptPriorityBits)) - 1UL)) << SubPriorityBits) |
 80026d6:	f003 0308 	and.w	r3, r3, #8
         );
}
 80026da:	fa03 f000 	lsl.w	r0, r3, r0
 80026de:	4770      	bx	lr

080026e0 <GPIO_Init>:
#include "encoder_driver.h"

static bool button_status = false, rotate_status = false, rotate_pin_A, rotate_pin_B;

void GPIO_Init()
{
 80026e0:	b570      	push	{r4, r5, r6, lr}
    LL_EXTI_InitTypeDef EXTI_InitStruct = {0};

    EXTI_InitStruct.Line_0_31 = LL_EXTI_LINE_1;
    EXTI_InitStruct.LineCommand = ENABLE;
 80026e2:	2401      	movs	r4, #1
    LL_EXTI_InitTypeDef EXTI_InitStruct = {0};
 80026e4:	2500      	movs	r5, #0
    EXTI_InitStruct.Line_0_31 = LL_EXTI_LINE_1;
 80026e6:	2602      	movs	r6, #2
{
 80026e8:	b088      	sub	sp, #32
    EXTI_InitStruct.Mode = LL_EXTI_MODE_IT;
    EXTI_InitStruct.Trigger = LL_EXTI_TRIGGER_RISING;
    LL_EXTI_Init(&EXTI_InitStruct);
 80026ea:	a801      	add	r0, sp, #4
    LL_EXTI_InitTypeDef EXTI_InitStruct = {0};
 80026ec:	9502      	str	r5, [sp, #8]
    EXTI_InitStruct.Line_0_31 = LL_EXTI_LINE_1;
 80026ee:	9601      	str	r6, [sp, #4]
    EXTI_InitStruct.LineCommand = ENABLE;
 80026f0:	f88d 4008 	strb.w	r4, [sp, #8]
    EXTI_InitStruct.Trigger = LL_EXTI_TRIGGER_RISING;
 80026f4:	f88d 400a 	strb.w	r4, [sp, #10]
    LL_EXTI_Init(&EXTI_InitStruct);
 80026f8:	f7fe fbcc 	bl	8000e94 <LL_EXTI_Init>

    EXTI_InitStruct.Line_0_31 = LL_EXTI_LINE_10;
 80026fc:	f44f 6380 	mov.w	r3, #1024	; 0x400
    EXTI_InitStruct.LineCommand = ENABLE;
    EXTI_InitStruct.Mode = LL_EXTI_MODE_IT;
    EXTI_InitStruct.Trigger = LL_EXTI_TRIGGER_FALLING;
    LL_EXTI_Init(&EXTI_InitStruct);
 8002700:	a801      	add	r0, sp, #4
    EXTI_InitStruct.Line_0_31 = LL_EXTI_LINE_10;
 8002702:	9301      	str	r3, [sp, #4]
    EXTI_InitStruct.LineCommand = ENABLE;
 8002704:	f88d 4008 	strb.w	r4, [sp, #8]
    EXTI_InitStruct.Mode = LL_EXTI_MODE_IT;
 8002708:	f88d 5009 	strb.w	r5, [sp, #9]
    EXTI_InitStruct.Trigger = LL_EXTI_TRIGGER_FALLING;
 800270c:	f88d 600a 	strb.w	r6, [sp, #10]
    LL_EXTI_Init(&EXTI_InitStruct);
 8002710:	f7fe fbc0 	bl	8000e94 <LL_EXTI_Init>
  *         @arg @ref LL_GPIO_AF_EXTI_LINE15
  * @retval None
  */
__STATIC_INLINE void LL_GPIO_AF_SetEXTISource(uint32_t Port, uint32_t Line)
{
  MODIFY_REG(AFIO->EXTICR[Line & 0xFF], (Line >> 16), Port << POSITION_VAL((Line >> 16)));
 8002714:	4921      	ldr	r1, [pc, #132]	; (800279c <GPIO_Init+0xbc>)
 8002716:	23f0      	movs	r3, #240	; 0xf0
 8002718:	688a      	ldr	r2, [r1, #8]
 800271a:	fa93 f3a3 	rbit	r3, r3
 800271e:	fab3 f383 	clz	r3, r3
 8002722:	f022 02f0 	bic.w	r2, r2, #240	; 0xf0
 8002726:	fa04 f303 	lsl.w	r3, r4, r3
 800272a:	4313      	orrs	r3, r2
 800272c:	608b      	str	r3, [r1, #8]
 800272e:	690b      	ldr	r3, [r1, #16]
 8002730:	f44f 6270 	mov.w	r2, #3840	; 0xf00
 8002734:	fa92 f2a2 	rbit	r2, r2
 8002738:	fab2 f282 	clz	r2, r2
 800273c:	f423 6370 	bic.w	r3, r3, #3840	; 0xf00
 8002740:	4094      	lsls	r4, r2
 8002742:	431c      	orrs	r4, r3

    LL_GPIO_AF_SetEXTISource(LL_GPIO_AF_EXTI_PORTB, LL_GPIO_AF_EXTI_LINE1);
    LL_GPIO_AF_SetEXTISource(LL_GPIO_AF_EXTI_PORTB, LL_GPIO_AF_EXTI_LINE10);


	LL_GPIO_InitTypeDef GPIO_InitStruct = {0};
 8002744:	2214      	movs	r2, #20
 8002746:	610c      	str	r4, [r1, #16]
 8002748:	a803      	add	r0, sp, #12
 800274a:	4629      	mov	r1, r5
 800274c:	f000 fe0f 	bl	800336e <memset>

    GPIO_InitStruct.Pin = LL_GPIO_PIN_1 | LL_GPIO_PIN_10 | LL_GPIO_PIN_11;
 8002750:	4b13      	ldr	r3, [pc, #76]	; (80027a0 <GPIO_Init+0xc0>)
  return ((uint32_t)((SCB->AIRCR & SCB_AIRCR_PRIGROUP_Msk) >> SCB_AIRCR_PRIGROUP_Pos));
 8002752:	4c14      	ldr	r4, [pc, #80]	; (80027a4 <GPIO_Init+0xc4>)
 8002754:	9303      	str	r3, [sp, #12]
    GPIO_InitStruct.Mode = LL_GPIO_MODE_INPUT;
 8002756:	2308      	movs	r3, #8
 8002758:	9304      	str	r3, [sp, #16]
    GPIO_InitStruct.Speed = LL_GPIO_SPEED_FREQ_HIGH;
 800275a:	2303      	movs	r3, #3
    GPIO_InitStruct.Pull = LL_GPIO_PULL_DOWN;
    LL_GPIO_Init(GPIOB, &GPIO_InitStruct);
 800275c:	a903      	add	r1, sp, #12
 800275e:	4812      	ldr	r0, [pc, #72]	; (80027a8 <GPIO_Init+0xc8>)
    GPIO_InitStruct.Speed = LL_GPIO_SPEED_FREQ_HIGH;
 8002760:	9305      	str	r3, [sp, #20]
    LL_GPIO_Init(GPIOB, &GPIO_InitStruct);
 8002762:	f7fe fbef 	bl	8000f44 <LL_GPIO_Init>
 8002766:	68e0      	ldr	r0, [r4, #12]

    NVIC_SetPriority(EXTI1_IRQn, NVIC_EncodePriority(NVIC_GetPriorityGrouping(),8, 0));
 8002768:	f3c0 2002 	ubfx	r0, r0, #8, #3
 800276c:	f7ff ffa0 	bl	80026b0 <NVIC_EncodePriority.constprop.1>
  NVIC->ISER[(((uint32_t)(int32_t)IRQn) >> 5UL)] = (uint32_t)(1UL << (((uint32_t)(int32_t)IRQn) & 0x1FUL));
 8002770:	2380      	movs	r3, #128	; 0x80
    NVIC->IP[((uint32_t)(int32_t)IRQn)]               = (uint8_t)((priority << (8U - __NVIC_PRIO_BITS)) & (uint32_t)0xFFUL);
 8002772:	490e      	ldr	r1, [pc, #56]	; (80027ac <GPIO_Init+0xcc>)
 8002774:	0100      	lsls	r0, r0, #4
 8002776:	b2c0      	uxtb	r0, r0
 8002778:	f881 0307 	strb.w	r0, [r1, #775]	; 0x307
  NVIC->ISER[(((uint32_t)(int32_t)IRQn) >> 5UL)] = (uint32_t)(1UL << (((uint32_t)(int32_t)IRQn) & 0x1FUL));
 800277c:	600b      	str	r3, [r1, #0]
  return ((uint32_t)((SCB->AIRCR & SCB_AIRCR_PRIGROUP_Msk) >> SCB_AIRCR_PRIGROUP_Pos));
 800277e:	68e0      	ldr	r0, [r4, #12]
    NVIC_EnableIRQ(EXTI1_IRQn);


    NVIC_SetPriority(EXTI15_10_IRQn, NVIC_EncodePriority(NVIC_GetPriorityGrouping(),8, 0));
 8002780:	f3c0 2002 	ubfx	r0, r0, #8, #3
 8002784:	f7ff ff94 	bl	80026b0 <NVIC_EncodePriority.constprop.1>
  NVIC->ISER[(((uint32_t)(int32_t)IRQn) >> 5UL)] = (uint32_t)(1UL << (((uint32_t)(int32_t)IRQn) & 0x1FUL));
 8002788:	f44f 7380 	mov.w	r3, #256	; 0x100
    NVIC->IP[((uint32_t)(int32_t)IRQn)]               = (uint8_t)((priority << (8U - __NVIC_PRIO_BITS)) & (uint32_t)0xFFUL);
 800278c:	0100      	lsls	r0, r0, #4
 800278e:	b2c0      	uxtb	r0, r0
 8002790:	f881 0328 	strb.w	r0, [r1, #808]	; 0x328
  NVIC->ISER[(((uint32_t)(int32_t)IRQn) >> 5UL)] = (uint32_t)(1UL << (((uint32_t)(int32_t)IRQn) & 0x1FUL));
 8002794:	604b      	str	r3, [r1, #4]
    NVIC_EnableIRQ(EXTI15_10_IRQn);
}
 8002796:	b008      	add	sp, #32
 8002798:	bd70      	pop	{r4, r5, r6, pc}
 800279a:	bf00      	nop
 800279c:	40010000 	.word	0x40010000
 80027a0:	040c020e 	.word	0x040c020e
 80027a4:	e000ed00 	.word	0xe000ed00
 80027a8:	40010c00 	.word	0x40010c00
 80027ac:	e000e100 	.word	0xe000e100

080027b0 <EXTI1_IRQHandler>:
  * @note   Please check each device line mapping for EXTI Line availability
  * @retval None
  */
__STATIC_INLINE void LL_EXTI_ClearFlag_0_31(uint32_t ExtiLine)
{
  WRITE_REG(EXTI->PR, ExtiLine);
 80027b0:	2202      	movs	r2, #2
 80027b2:	4b03      	ldr	r3, [pc, #12]	; (80027c0 <EXTI1_IRQHandler+0x10>)
 80027b4:	615a      	str	r2, [r3, #20]

void EXTI1_IRQHandler(void)
{
	LL_EXTI_ClearFlag_0_31(LL_EXTI_LINE_1);

	button_status = true;
 80027b6:	2201      	movs	r2, #1
 80027b8:	4b02      	ldr	r3, [pc, #8]	; (80027c4 <EXTI1_IRQHandler+0x14>)
 80027ba:	701a      	strb	r2, [r3, #0]
 80027bc:	4770      	bx	lr
 80027be:	bf00      	nop
 80027c0:	40010400 	.word	0x40010400
 80027c4:	20001354 	.word	0x20001354

080027c8 <GetButton>:
}

bool GetButton(void)
{
	return button_status;
}
 80027c8:	4b01      	ldr	r3, [pc, #4]	; (80027d0 <GetButton+0x8>)
 80027ca:	7818      	ldrb	r0, [r3, #0]
 80027cc:	4770      	bx	lr
 80027ce:	bf00      	nop
 80027d0:	20001354 	.word	0x20001354

080027d4 <ClearButton>:

void ClearButton()
{
    button_status = false;
 80027d4:	2200      	movs	r2, #0
 80027d6:	4b01      	ldr	r3, [pc, #4]	; (80027dc <ClearButton+0x8>)
 80027d8:	701a      	strb	r2, [r3, #0]
 80027da:	4770      	bx	lr
 80027dc:	20001354 	.word	0x20001354

080027e0 <GetRotateStatus>:
}

bool GetRotateStatus(void)
{
	return rotate_status;
}
 80027e0:	4b01      	ldr	r3, [pc, #4]	; (80027e8 <GetRotateStatus+0x8>)
 80027e2:	7818      	ldrb	r0, [r3, #0]
 80027e4:	4770      	bx	lr
 80027e6:	bf00      	nop
 80027e8:	20001357 	.word	0x20001357

080027ec <ClearRotateStatus>:

void ClearRotateStatus()
{
    rotate_status = false;
 80027ec:	2200      	movs	r2, #0
 80027ee:	4b01      	ldr	r3, [pc, #4]	; (80027f4 <ClearRotateStatus+0x8>)
 80027f0:	701a      	strb	r2, [r3, #0]
 80027f2:	4770      	bx	lr
 80027f4:	20001357 	.word	0x20001357

080027f8 <GetRotatePinB>:
}

bool GetRotatePinB()
{
	return rotate_pin_A;
}
 80027f8:	4b01      	ldr	r3, [pc, #4]	; (8002800 <GetRotatePinB+0x8>)
 80027fa:	7818      	ldrb	r0, [r3, #0]
 80027fc:	4770      	bx	lr
 80027fe:	bf00      	nop
 8002800:	20001355 	.word	0x20001355

08002804 <GetRotatePinA>:

bool GetRotatePinA()
{
	return rotate_pin_B;
}
 8002804:	4b01      	ldr	r3, [pc, #4]	; (800280c <GetRotatePinA+0x8>)
 8002806:	7818      	ldrb	r0, [r3, #0]
 8002808:	4770      	bx	lr
 800280a:	bf00      	nop
 800280c:	20001356 	.word	0x20001356

08002810 <GPIO_Read_Pin>:
  return (READ_REG(GPIOx->IDR));
 8002810:	4b03      	ldr	r3, [pc, #12]	; (8002820 <GPIO_Read_Pin+0x10>)
 8002812:	689b      	ldr	r3, [r3, #8]

uint8_t GPIO_Read_Pin(uint8_t mask)
{
	uint16_t port_bits = LL_GPIO_ReadInputPort(GPIOB);
	return ((port_bits & (1 << mask)) != 0);
 8002814:	b29b      	uxth	r3, r3
 8002816:	fa43 f000 	asr.w	r0, r3, r0
}
 800281a:	f000 0001 	and.w	r0, r0, #1
 800281e:	4770      	bx	lr
 8002820:	40010c00 	.word	0x40010c00

08002824 <EXTI15_10_IRQHandler>:
 8002824:	f44f 6280 	mov.w	r2, #1024	; 0x400
{
 8002828:	b508      	push	{r3, lr}
 800282a:	4b0b      	ldr	r3, [pc, #44]	; (8002858 <EXTI15_10_IRQHandler+0x34>)
	rotate_pin_A = GPIO_Read_Pin(10);
 800282c:	200a      	movs	r0, #10
 800282e:	615a      	str	r2, [r3, #20]
	rotate_status = true;
 8002830:	2201      	movs	r2, #1
 8002832:	4b0a      	ldr	r3, [pc, #40]	; (800285c <EXTI15_10_IRQHandler+0x38>)
 8002834:	701a      	strb	r2, [r3, #0]
	rotate_pin_A = GPIO_Read_Pin(10);
 8002836:	f7ff ffeb 	bl	8002810 <GPIO_Read_Pin>
 800283a:	3000      	adds	r0, #0
 800283c:	bf18      	it	ne
 800283e:	2001      	movne	r0, #1
 8002840:	4b07      	ldr	r3, [pc, #28]	; (8002860 <EXTI15_10_IRQHandler+0x3c>)
 8002842:	7018      	strb	r0, [r3, #0]
	rotate_pin_B = GPIO_Read_Pin(11);
 8002844:	200b      	movs	r0, #11
 8002846:	f7ff ffe3 	bl	8002810 <GPIO_Read_Pin>
 800284a:	3000      	adds	r0, #0
 800284c:	bf18      	it	ne
 800284e:	2001      	movne	r0, #1
 8002850:	4b04      	ldr	r3, [pc, #16]	; (8002864 <EXTI15_10_IRQHandler+0x40>)
 8002852:	7018      	strb	r0, [r3, #0]
 8002854:	bd08      	pop	{r3, pc}
 8002856:	bf00      	nop
 8002858:	40010400 	.word	0x40010400
 800285c:	20001357 	.word	0x20001357
 8002860:	20001355 	.word	0x20001355
 8002864:	20001356 	.word	0x20001356

08002868 <EncoderQueueInit>:

xQueueHandle encoder_queue;
EncoderRotateInfo xEncoder_info;

void EncoderQueueInit(void)
{
 8002868:	b508      	push	{r3, lr}
	encoder_queue = xQueueCreate( 2, sizeof(EncoderRotateInfo));
 800286a:	2200      	movs	r2, #0
 800286c:	2104      	movs	r1, #4
 800286e:	2002      	movs	r0, #2
 8002870:	f7ff f8ee 	bl	8001a50 <xQueueGenericCreate>
 8002874:	4b01      	ldr	r3, [pc, #4]	; (800287c <EncoderQueueInit+0x14>)
 8002876:	6018      	str	r0, [r3, #0]
 8002878:	bd08      	pop	{r3, pc}
 800287a:	bf00      	nop
 800287c:	20001974 	.word	0x20001974

08002880 <EncoderQueue_Send>:
}

void EncoderQueue_Send(uint16_t value, uint8_t button)
{
 8002880:	b410      	push	{r4}
	const portTickType xTicksToWait = 100 / portTICK_RATE_MS;
	xEncoder_info.button = button;
 8002882:	4c05      	ldr	r4, [pc, #20]	; (8002898 <EncoderQueue_Send+0x18>)
	xEncoder_info.state = value;
	xQueueSendToBack(encoder_queue, &xEncoder_info, xTicksToWait);
 8002884:	2300      	movs	r3, #0
	xEncoder_info.state = value;
 8002886:	8020      	strh	r0, [r4, #0]
	xQueueSendToBack(encoder_queue, &xEncoder_info, xTicksToWait);
 8002888:	4804      	ldr	r0, [pc, #16]	; (800289c <EncoderQueue_Send+0x1c>)
	xEncoder_info.button = button;
 800288a:	70a1      	strb	r1, [r4, #2]
	xQueueSendToBack(encoder_queue, &xEncoder_info, xTicksToWait);
 800288c:	2264      	movs	r2, #100	; 0x64
 800288e:	4621      	mov	r1, r4
 8002890:	6800      	ldr	r0, [r0, #0]
}
 8002892:	bc10      	pop	{r4}
	xQueueSendToBack(encoder_queue, &xEncoder_info, xTicksToWait);
 8002894:	f7ff b8fe 	b.w	8001a94 <xQueueGenericSend>
 8002898:	20001978 	.word	0x20001978
 800289c:	20001974 	.word	0x20001974

080028a0 <EncoderQueue_Receive>:

EncoderRotateInfo EncoderQueue_Receive(void)
{
	EncoderRotateInfo value;
	xQueueReceive(encoder_queue, &value, 0);
 80028a0:	2300      	movs	r3, #0
{
 80028a2:	b507      	push	{r0, r1, r2, lr}
	xQueueReceive(encoder_queue, &value, 0);
 80028a4:	4808      	ldr	r0, [pc, #32]	; (80028c8 <EncoderQueue_Receive+0x28>)
 80028a6:	461a      	mov	r2, r3
 80028a8:	4669      	mov	r1, sp
 80028aa:	6800      	ldr	r0, [r0, #0]
 80028ac:	f7ff f9a8 	bl	8001c00 <xQueueGenericReceive>
	return value;
 80028b0:	2000      	movs	r0, #0
 80028b2:	9b00      	ldr	r3, [sp, #0]
 80028b4:	b29a      	uxth	r2, r3
 80028b6:	f362 000f 	bfi	r0, r2, #0, #16
 80028ba:	0c1b      	lsrs	r3, r3, #16
 80028bc:	f363 401f 	bfi	r0, r3, #16, #16
}
 80028c0:	b003      	add	sp, #12
 80028c2:	f85d fb04 	ldr.w	pc, [sp], #4
 80028c6:	bf00      	nop
 80028c8:	20001974 	.word	0x20001974

080028cc <EncoderQueue_IsElements>:
bool EncoderQueue_IsElements(void)
{
 80028cc:	b508      	push	{r3, lr}
	if(uxQueueMessagesWaiting(encoder_queue) > 0)
 80028ce:	4b04      	ldr	r3, [pc, #16]	; (80028e0 <EncoderQueue_IsElements+0x14>)
 80028d0:	6818      	ldr	r0, [r3, #0]
 80028d2:	f7ff fa59 	bl	8001d88 <uxQueueMessagesWaiting>
	{
		return true;
	}
	return false;
}
 80028d6:	3000      	adds	r0, #0
 80028d8:	bf18      	it	ne
 80028da:	2001      	movne	r0, #1
 80028dc:	bd08      	pop	{r3, pc}
 80028de:	bf00      	nop
 80028e0:	20001974 	.word	0x20001974

080028e4 <pxEncoder>:
#include "encoder_queue.h"
#include "encoder.h"
#include "cmsis_os.h"

static void pxEncoder(void * arg)
{
 80028e4:	b508      	push	{r3, lr}
	EncoderInit();
 80028e6:	f7fd ff4b 	bl	8000780 <EncoderInit>
			case eButton:
			{
				encoder_button_step++;
				if(encoder_button_step > 4)
				{
					encoder_button_step = 0;
 80028ea:	2500      	movs	r5, #0
				EncoderQueue_Send(-1000, encoder_button_step);
				break;
			}
			case eRight:
			{
				EncoderQueue_Send(1000, encoder_button_step);
 80028ec:	4c0e      	ldr	r4, [pc, #56]	; (8002928 <pxEncoder+0x44>)
		switch(Encoder_State())
 80028ee:	f7fd ff49 	bl	8000784 <Encoder_State>
 80028f2:	2802      	cmp	r0, #2
 80028f4:	d014      	beq.n	8002920 <pxEncoder+0x3c>
 80028f6:	2803      	cmp	r0, #3
 80028f8:	d007      	beq.n	800290a <pxEncoder+0x26>
 80028fa:	2801      	cmp	r0, #1
 80028fc:	d10c      	bne.n	8002918 <pxEncoder+0x34>
				EncoderQueue_Send(-1000, encoder_button_step);
 80028fe:	f64f 4018 	movw	r0, #64536	; 0xfc18
 8002902:	7821      	ldrb	r1, [r4, #0]
				EncoderQueue_Send(1000, encoder_button_step);
 8002904:	f7ff ffbc 	bl	8002880 <EncoderQueue_Send>
				break;
 8002908:	e006      	b.n	8002918 <pxEncoder+0x34>
				encoder_button_step++;
 800290a:	7823      	ldrb	r3, [r4, #0]
 800290c:	3301      	adds	r3, #1
 800290e:	b2db      	uxtb	r3, r3
				if(encoder_button_step > 4)
 8002910:	2b04      	cmp	r3, #4
				encoder_button_step++;
 8002912:	bf94      	ite	ls
 8002914:	7023      	strbls	r3, [r4, #0]
					encoder_button_step = 0;
 8002916:	7025      	strbhi	r5, [r4, #0]
			}
			default: break;
		}
		osDelay(5);
 8002918:	2005      	movs	r0, #5
 800291a:	f7fe fd89 	bl	8001430 <osDelay>
		switch(Encoder_State())
 800291e:	e7e6      	b.n	80028ee <pxEncoder+0xa>
				EncoderQueue_Send(1000, encoder_button_step);
 8002920:	7821      	ldrb	r1, [r4, #0]
 8002922:	f44f 707a 	mov.w	r0, #1000	; 0x3e8
 8002926:	e7ed      	b.n	8002904 <pxEncoder+0x20>
 8002928:	20001358 	.word	0x20001358

0800292c <EncoderTaskInit>:
	}
}

void EncoderTaskInit(void)
{
	xTaskCreate(pxEncoder, "Encoder", configMINIMAL_STACK_SIZE, NULL, osPriorityNormal, NULL);
 800292c:	2300      	movs	r3, #0
{
 800292e:	b507      	push	{r0, r1, r2, lr}
	xTaskCreate(pxEncoder, "Encoder", configMINIMAL_STACK_SIZE, NULL, osPriorityNormal, NULL);
 8002930:	2280      	movs	r2, #128	; 0x80
 8002932:	9301      	str	r3, [sp, #4]
 8002934:	9300      	str	r3, [sp, #0]
 8002936:	4903      	ldr	r1, [pc, #12]	; (8002944 <EncoderTaskInit+0x18>)
 8002938:	4803      	ldr	r0, [pc, #12]	; (8002948 <EncoderTaskInit+0x1c>)
 800293a:	f7ff fa9b 	bl	8001e74 <xTaskCreate>
}
 800293e:	b003      	add	sp, #12
 8002940:	f85d fb04 	ldr.w	pc, [sp], #4
 8002944:	0800405d 	.word	0x0800405d
 8002948:	080028e5 	.word	0x080028e5

0800294c <pxESP>:
	}
	return 1;
}

static void pxESP(void * arg)
{
 800294c:	b508      	push	{r3, lr}
	StatusLedInit();
 800294e:	f000 fa6f 	bl	8002e30 <StatusLedInit>
	ESPInit();
 8002952:	f7fd fd95 	bl	8000480 <ESPInit>
	while((ESP_SetModeSoftAP()==0) || (ESP_SetParamsSoftAP("ESP", "12345678")==0) || (ESP_StartTCPServer(80)==0))
 8002956:	4d15      	ldr	r5, [pc, #84]	; (80029ac <pxESP+0x60>)
 8002958:	4e15      	ldr	r6, [pc, #84]	; (80029b0 <pxESP+0x64>)
		gMissConnection++;
 800295a:	4c16      	ldr	r4, [pc, #88]	; (80029b4 <pxESP+0x68>)
	while((ESP_SetModeSoftAP()==0) || (ESP_SetParamsSoftAP("ESP", "12345678")==0) || (ESP_StartTCPServer(80)==0))
 800295c:	f7fd fe88 	bl	8000670 <ESP_SetModeSoftAP>
 8002960:	b158      	cbz	r0, 800297a <pxESP+0x2e>
 8002962:	4629      	mov	r1, r5
 8002964:	4630      	mov	r0, r6
 8002966:	f7fd fe2b 	bl	80005c0 <ESP_SetParamsSoftAP>
 800296a:	b130      	cbz	r0, 800297a <pxESP+0x2e>
 800296c:	2050      	movs	r0, #80	; 0x50
 800296e:	f7fd fdf7 	bl	8000560 <ESP_StartTCPServer>
 8002972:	b110      	cbz	r0, 800297a <pxESP+0x2e>

	if(!espStart(5))
	{
		ErrorBlink();
	}
	else StatusLedON();
 8002974:	f000 fa8a 	bl	8002e8c <StatusLedON>
 8002978:	e00d      	b.n	8002996 <pxESP+0x4a>
		gMissConnection++;
 800297a:	7823      	ldrb	r3, [r4, #0]
 800297c:	3301      	adds	r3, #1
 800297e:	7023      	strb	r3, [r4, #0]
		ESP_Resset();
 8002980:	f7fd fd85 	bl	800048e <ESP_Resset>
		delay(1000);
 8002984:	f44f 707a 	mov.w	r0, #1000	; 0x3e8
 8002988:	f7ff fe8a 	bl	80026a0 <delay>
		if(gMissConnection >= fails)
 800298c:	7823      	ldrb	r3, [r4, #0]
 800298e:	2b04      	cmp	r3, #4
 8002990:	dde4      	ble.n	800295c <pxESP+0x10>
		ErrorBlink();
 8002992:	f000 fa83 	bl	8002e9c <ErrorBlink>

	while(1)
	{
		ESP_Request(PAGES, FUNCTIONS, 2);
 8002996:	4d08      	ldr	r5, [pc, #32]	; (80029b8 <pxESP+0x6c>)
 8002998:	4c08      	ldr	r4, [pc, #32]	; (80029bc <pxESP+0x70>)
 800299a:	4620      	mov	r0, r4
 800299c:	2202      	movs	r2, #2
 800299e:	4629      	mov	r1, r5
 80029a0:	f7fe f822 	bl	80009e8 <ESP_Request>
		osDelay(10);
 80029a4:	200a      	movs	r0, #10
 80029a6:	f7fe fd43 	bl	8001430 <osDelay>
 80029aa:	e7f6      	b.n	800299a <pxESP+0x4e>
 80029ac:	08004065 	.word	0x08004065
 80029b0:	0800406e 	.word	0x0800406e
 80029b4:	20001359 	.word	0x20001359
 80029b8:	08003e1c 	.word	0x08003e1c
 80029bc:	20000000 	.word	0x20000000

080029c0 <ESPTaskInit>:
	}
}


void ESPTaskInit(void)
{
 80029c0:	b507      	push	{r0, r1, r2, lr}
	xTaskCreate(pxESP, "ESP", configMINIMAL_STACK_SIZE, NULL, osPriorityAboveNormal, NULL);
 80029c2:	2300      	movs	r3, #0
 80029c4:	2201      	movs	r2, #1
 80029c6:	4905      	ldr	r1, [pc, #20]	; (80029dc <ESPTaskInit+0x1c>)
 80029c8:	e88d 000c 	stmia.w	sp, {r2, r3}
 80029cc:	4804      	ldr	r0, [pc, #16]	; (80029e0 <ESPTaskInit+0x20>)
 80029ce:	2280      	movs	r2, #128	; 0x80
 80029d0:	f7ff fa50 	bl	8001e74 <xTaskCreate>
}
 80029d4:	b003      	add	sp, #12
 80029d6:	f85d fb04 	ldr.w	pc, [sp], #4
 80029da:	bf00      	nop
 80029dc:	0800406e 	.word	0x0800406e
 80029e0:	0800294d 	.word	0x0800294d

080029e4 <LL_ADC_SetChannelSamplingTime.constprop.0>:
__STATIC_INLINE void LL_ADC_SetChannelSamplingTime(ADC_TypeDef *ADCx, uint32_t Channel, uint32_t SamplingTime)
 80029e4:	b510      	push	{r4, lr}
 80029e6:	f04f 7300 	mov.w	r3, #33554432	; 0x2000000
 80029ea:	fa93 f2a3 	rbit	r2, r3
  register uint32_t *preg = __ADC_PTR_REG_OFFSET(ADCx->SMPR1, __ADC_MASK_SHIFT(Channel, ADC_CHANNEL_SMPRX_REGOFFSET_MASK));
 80029ee:	fab2 f282 	clz	r2, r2
 80029f2:	4c0b      	ldr	r4, [pc, #44]	; (8002a20 <LL_ADC_SetChannelSamplingTime.constprop.0+0x3c>)
 80029f4:	40d3      	lsrs	r3, r2
 80029f6:	f04f 70f8 	mov.w	r0, #32505856	; 0x1f00000
 80029fa:	fa90 f1a0 	rbit	r1, r0
  MODIFY_REG(*preg,
 80029fe:	fab1 f281 	clz	r2, r1
 8002a02:	fa90 f0a0 	rbit	r0, r0
 8002a06:	f44f 0140 	mov.w	r1, #12582912	; 0xc00000
 8002a0a:	40d1      	lsrs	r1, r2
 8002a0c:	2207      	movs	r2, #7
 8002a0e:	fa02 f101 	lsl.w	r1, r2, r1
 8002a12:	f854 2023 	ldr.w	r2, [r4, r3, lsl #2]
 8002a16:	ea22 0201 	bic.w	r2, r2, r1
 8002a1a:	f844 2023 	str.w	r2, [r4, r3, lsl #2]
 8002a1e:	bd10      	pop	{r4, pc}
 8002a20:	4001240c 	.word	0x4001240c

08002a24 <MX_ADC1_Init>:
#include "ldr_driver.h"

uint16_t ADC1_value = 0;

void MX_ADC1_Init(void)
{
 8002a24:	b530      	push	{r4, r5, lr}
  LL_ADC_InitTypeDef ADC_InitStruct = {0};
 8002a26:	2400      	movs	r4, #0
{
 8002a28:	b091      	sub	sp, #68	; 0x44
  LL_ADC_CommonInitTypeDef ADC_CommonInitStruct = {0};
  LL_ADC_REG_InitTypeDef ADC_REG_InitStruct = {0};
 8002a2a:	4621      	mov	r1, r4
 8002a2c:	2214      	movs	r2, #20
 8002a2e:	a806      	add	r0, sp, #24
  LL_ADC_InitTypeDef ADC_InitStruct = {0};
 8002a30:	9404      	str	r4, [sp, #16]
 8002a32:	9405      	str	r4, [sp, #20]
  LL_ADC_CommonInitTypeDef ADC_CommonInitStruct = {0};
 8002a34:	9401      	str	r4, [sp, #4]
  LL_ADC_REG_InitTypeDef ADC_REG_InitStruct = {0};
 8002a36:	f000 fc9a 	bl	800336e <memset>

  LL_GPIO_InitTypeDef GPIO_InitStruct = {0};
 8002a3a:	4621      	mov	r1, r4
 8002a3c:	2214      	movs	r2, #20
 8002a3e:	a80b      	add	r0, sp, #44	; 0x2c
 8002a40:	f000 fc95 	bl	800336e <memset>
  * @retval None
*/
__STATIC_INLINE void LL_APB2_GRP1_EnableClock(uint32_t Periphs)
{
  __IO uint32_t tmpreg;
  SET_BIT(RCC->APB2ENR, Periphs);
 8002a44:	4b2d      	ldr	r3, [pc, #180]	; (8002afc <MX_ADC1_Init+0xd8>)
  GPIO_InitStruct.Mode = LL_GPIO_MODE_ANALOG;
  LL_GPIO_Init(GPIOA, &GPIO_InitStruct);

  ADC_InitStruct.DataAlignment = LL_ADC_DATA_ALIGN_RIGHT;
  ADC_InitStruct.SequencersScanMode = LL_ADC_SEQ_SCAN_DISABLE;
  LL_ADC_Init(ADC1, &ADC_InitStruct);
 8002a46:	4d2e      	ldr	r5, [pc, #184]	; (8002b00 <MX_ADC1_Init+0xdc>)
 8002a48:	699a      	ldr	r2, [r3, #24]
  LL_GPIO_Init(GPIOA, &GPIO_InitStruct);
 8002a4a:	a90b      	add	r1, sp, #44	; 0x2c
 8002a4c:	f442 7200 	orr.w	r2, r2, #512	; 0x200
 8002a50:	619a      	str	r2, [r3, #24]
  /* Delay after an RCC peripheral clock enabling */
  tmpreg = READ_BIT(RCC->APB2ENR, Periphs);
 8002a52:	699a      	ldr	r2, [r3, #24]
 8002a54:	482b      	ldr	r0, [pc, #172]	; (8002b04 <MX_ADC1_Init+0xe0>)
 8002a56:	f402 7200 	and.w	r2, r2, #512	; 0x200
 8002a5a:	9203      	str	r2, [sp, #12]
  (void)tmpreg;
 8002a5c:	9a03      	ldr	r2, [sp, #12]
  SET_BIT(RCC->APB2ENR, Periphs);
 8002a5e:	699a      	ldr	r2, [r3, #24]
 8002a60:	f042 0204 	orr.w	r2, r2, #4
 8002a64:	619a      	str	r2, [r3, #24]
  tmpreg = READ_BIT(RCC->APB2ENR, Periphs);
 8002a66:	699b      	ldr	r3, [r3, #24]
 8002a68:	f003 0304 	and.w	r3, r3, #4
 8002a6c:	9302      	str	r3, [sp, #8]
  (void)tmpreg;
 8002a6e:	9b02      	ldr	r3, [sp, #8]
  GPIO_InitStruct.Pin = LL_GPIO_PIN_4;
 8002a70:	f241 0310 	movw	r3, #4112	; 0x1010
 8002a74:	930b      	str	r3, [sp, #44]	; 0x2c
  LL_GPIO_Init(GPIOA, &GPIO_InitStruct);
 8002a76:	f7fe fa65 	bl	8000f44 <LL_GPIO_Init>
  LL_ADC_Init(ADC1, &ADC_InitStruct);
 8002a7a:	a904      	add	r1, sp, #16
 8002a7c:	4628      	mov	r0, r5
  ADC_InitStruct.DataAlignment = LL_ADC_DATA_ALIGN_RIGHT;
 8002a7e:	9404      	str	r4, [sp, #16]
  ADC_InitStruct.SequencersScanMode = LL_ADC_SEQ_SCAN_DISABLE;
 8002a80:	9405      	str	r4, [sp, #20]
  LL_ADC_Init(ADC1, &ADC_InitStruct);
 8002a82:	f7fe f9d1 	bl	8000e28 <LL_ADC_Init>
  ADC_CommonInitStruct.Multimode = LL_ADC_MULTI_INDEPENDENT;
 8002a86:	a910      	add	r1, sp, #64	; 0x40
 8002a88:	f841 4d3c 	str.w	r4, [r1, #-60]!
  LL_ADC_CommonInit(__LL_ADC_COMMON_INSTANCE(ADC1), &ADC_CommonInitStruct);
 8002a8c:	4628      	mov	r0, r5
 8002a8e:	f7fe f9b5 	bl	8000dfc <LL_ADC_CommonInit>

  ADC_REG_InitStruct.TriggerSource = LL_ADC_REG_TRIG_SOFTWARE;
 8002a92:	f44f 2360 	mov.w	r3, #917504	; 0xe0000
  ADC_REG_InitStruct.SequencerLength = LL_ADC_REG_SEQ_SCAN_DISABLE;
  ADC_REG_InitStruct.SequencerDiscont = LL_ADC_REG_SEQ_SCAN_DISABLE;
  ADC_REG_InitStruct.ContinuousMode = LL_ADC_REG_CONV_SINGLE;
  ADC_REG_InitStruct.DMATransfer = LL_ADC_REG_DMA_TRANSFER_NONE;
  LL_ADC_REG_Init(ADC1, &ADC_REG_InitStruct);
 8002a96:	a906      	add	r1, sp, #24
 8002a98:	4628      	mov	r0, r5
  ADC_REG_InitStruct.TriggerSource = LL_ADC_REG_TRIG_SOFTWARE;
 8002a9a:	9306      	str	r3, [sp, #24]
  ADC_REG_InitStruct.SequencerLength = LL_ADC_REG_SEQ_SCAN_DISABLE;
 8002a9c:	9407      	str	r4, [sp, #28]
  ADC_REG_InitStruct.SequencerDiscont = LL_ADC_REG_SEQ_SCAN_DISABLE;
 8002a9e:	9408      	str	r4, [sp, #32]
  ADC_REG_InitStruct.ContinuousMode = LL_ADC_REG_CONV_SINGLE;
 8002aa0:	9409      	str	r4, [sp, #36]	; 0x24
  ADC_REG_InitStruct.DMATransfer = LL_ADC_REG_DMA_TRANSFER_NONE;
 8002aa2:	940a      	str	r4, [sp, #40]	; 0x28
  LL_ADC_REG_Init(ADC1, &ADC_REG_InitStruct);
 8002aa4:	f7fe f9d3 	bl	8000e4e <LL_ADC_REG_Init>
 8002aa8:	f44f 7340 	mov.w	r3, #768	; 0x300
 8002aac:	fa93 f3a3 	rbit	r3, r3
  register uint32_t *preg = __ADC_PTR_REG_OFFSET(ADCx->SQR1, __ADC_MASK_SHIFT(Rank, ADC_REG_SQRX_REGOFFSET_MASK));
 8002ab0:	f44f 7200 	mov.w	r2, #512	; 0x200
 8002ab4:	fab3 f383 	clz	r3, r3
 8002ab8:	4913      	ldr	r1, [pc, #76]	; (8002b08 <MX_ADC1_Init+0xe4>)
 8002aba:	40da      	lsrs	r2, r3
  MODIFY_REG(*preg,
 8002abc:	f851 3022 	ldr.w	r3, [r1, r2, lsl #2]
 8002ac0:	f023 031f 	bic.w	r3, r3, #31
 8002ac4:	f043 0304 	orr.w	r3, r3, #4
 8002ac8:	f841 3022 	str.w	r3, [r1, r2, lsl #2]
  /** Configure Regular Channel
  */
  LL_ADC_REG_SetSequencerRanks(ADC1, LL_ADC_REG_RANK_1, LL_ADC_CHANNEL_4);
  LL_ADC_SetChannelSamplingTime(ADC1, LL_ADC_CHANNEL_4, LL_ADC_SAMPLINGTIME_1CYCLE_5);
 8002acc:	f7ff ff8a 	bl	80029e4 <LL_ADC_SetChannelSamplingTime.constprop.0>
 8002ad0:	f44f 2280 	mov.w	r2, #262144	; 0x40000
  return ((uint32_t)((SCB->AIRCR & SCB_AIRCR_PRIGROUP_Msk) >> SCB_AIRCR_PRIGROUP_Pos));
 8002ad4:	4b0d      	ldr	r3, [pc, #52]	; (8002b0c <MX_ADC1_Init+0xe8>)
 8002ad6:	68db      	ldr	r3, [r3, #12]
    NVIC->IP[((uint32_t)(int32_t)IRQn)]               = (uint8_t)((priority << (8U - __NVIC_PRIO_BITS)) & (uint32_t)0xFFUL);
 8002ad8:	4b0d      	ldr	r3, [pc, #52]	; (8002b10 <MX_ADC1_Init+0xec>)
 8002ada:	f883 4312 	strb.w	r4, [r3, #786]	; 0x312
  NVIC->ISER[(((uint32_t)(int32_t)IRQn) >> 5UL)] = (uint32_t)(1UL << (((uint32_t)(int32_t)IRQn) & 0x1FUL));
 8002ade:	601a      	str	r2, [r3, #0]
{
  /* Note: on this STM32 serie, there is no flag ADC group regular           */
  /*       end of unitary conversion.                                         */
  /*       Flag noted as "EOC" is corresponding to flag "EOS"                 */
  /*       in other STM32 families).                                          */
  SET_BIT(ADCx->CR1, ADC_CR1_EOCIE);
 8002ae0:	686b      	ldr	r3, [r5, #4]
 8002ae2:	f043 0320 	orr.w	r3, r3, #32
 8002ae6:	606b      	str	r3, [r5, #4]
  return (READ_BIT(ADCx->CR2, ADC_CR2_ADON) == (ADC_CR2_ADON));
 8002ae8:	68ab      	ldr	r3, [r5, #8]
  /* ADC1 interrupt Init */
  NVIC_SetPriority(ADC1_2_IRQn, NVIC_EncodePriority(NVIC_GetPriorityGrouping(),0, 0));
  NVIC_EnableIRQ(ADC1_2_IRQn);
  LL_ADC_EnableIT_EOS(ADC1);

  if (LL_ADC_IsEnabled(ADC1) == 0)
 8002aea:	07db      	lsls	r3, r3, #31
  SET_BIT(ADCx->CR2, ADC_CR2_ADON);
 8002aec:	bf5e      	ittt	pl
 8002aee:	68ab      	ldrpl	r3, [r5, #8]
 8002af0:	f043 0301 	orrpl.w	r3, r3, #1
 8002af4:	60ab      	strpl	r3, [r5, #8]
  {
	  LL_ADC_Enable(ADC1);
  }
}
 8002af6:	b011      	add	sp, #68	; 0x44
 8002af8:	bd30      	pop	{r4, r5, pc}
 8002afa:	bf00      	nop
 8002afc:	40021000 	.word	0x40021000
 8002b00:	40012400 	.word	0x40012400
 8002b04:	40010800 	.word	0x40010800
 8002b08:	4001242c 	.word	0x4001242c
 8002b0c:	e000ed00 	.word	0xe000ed00
 8002b10:	e000e100 	.word	0xe000e100

08002b14 <ADC1_Activate>:

void ADC1_Activate(void)
{
 8002b14:	b510      	push	{r4, lr}
  return (READ_BIT(ADCx->CR2, ADC_CR2_ADON) == (ADC_CR2_ADON));
 8002b16:	4c0a      	ldr	r4, [pc, #40]	; (8002b40 <ADC1_Activate+0x2c>)
 8002b18:	68a3      	ldr	r3, [r4, #8]
	if (LL_ADC_IsEnabled(ADC1) == 1)
 8002b1a:	07da      	lsls	r2, r3, #31
 8002b1c:	d50f      	bpl.n	8002b3e <ADC1_Activate+0x2a>
	{
		LL_ADC_SetChannelSamplingTime(ADC1, LL_ADC_CHANNEL_4, LL_ADC_SAMPLINGTIME_1CYCLE_5);
 8002b1e:	f7ff ff61 	bl	80029e4 <LL_ADC_SetChannelSamplingTime.constprop.0>
  SET_BIT(ADCx->CR2, ADC_CR2_ADON);
 8002b22:	68a3      	ldr	r3, [r4, #8]
		LL_ADC_Enable(ADC1);
		LL_mDelay(1);
 8002b24:	2001      	movs	r0, #1
 8002b26:	f043 0301 	orr.w	r3, r3, #1
 8002b2a:	60a3      	str	r3, [r4, #8]
 8002b2c:	f7fe fc48 	bl	80013c0 <LL_mDelay>
  SET_BIT(ADCx->CR2, ADC_CR2_CAL);
 8002b30:	68a3      	ldr	r3, [r4, #8]
 8002b32:	f043 0304 	orr.w	r3, r3, #4
 8002b36:	60a3      	str	r3, [r4, #8]
  return (READ_BIT(ADCx->CR2, ADC_CR2_CAL) == (ADC_CR2_CAL));
 8002b38:	68a3      	ldr	r3, [r4, #8]

	    LL_ADC_StartCalibration(ADC1);
	    while (LL_ADC_IsCalibrationOnGoing(ADC1) != 0);
 8002b3a:	075b      	lsls	r3, r3, #29
 8002b3c:	d4fc      	bmi.n	8002b38 <ADC1_Activate+0x24>
 8002b3e:	bd10      	pop	{r4, pc}
 8002b40:	40012400 	.word	0x40012400

08002b44 <ADC1_2_IRQHandler>:
  return (READ_BIT(ADCx->SR, LL_ADC_FLAG_EOS) == (LL_ADC_FLAG_EOS));
 8002b44:	4b05      	ldr	r3, [pc, #20]	; (8002b5c <ADC1_2_IRQHandler+0x18>)
 8002b46:	681a      	ldr	r2, [r3, #0]
	}
}

void ADC1_2_IRQHandler(void)
{
  if(LL_ADC_IsActiveFlag_EOS(ADC1) != 0)
 8002b48:	0792      	lsls	r2, r2, #30
 8002b4a:	d505      	bpl.n	8002b58 <ADC1_2_IRQHandler+0x14>
  WRITE_REG(ADCx->SR, ~LL_ADC_FLAG_EOS);
 8002b4c:	f06f 0202 	mvn.w	r2, #2
 8002b50:	601a      	str	r2, [r3, #0]
  return (uint16_t)(READ_BIT(ADCx->DR, ADC_DR_DATA));
 8002b52:	6cda      	ldr	r2, [r3, #76]	; 0x4c
  {
    LL_ADC_ClearFlag_EOS(ADC1);

    ADC1_value = LL_ADC_REG_ReadConversionData12(ADC1);
 8002b54:	4b02      	ldr	r3, [pc, #8]	; (8002b60 <ADC1_2_IRQHandler+0x1c>)
 8002b56:	801a      	strh	r2, [r3, #0]
 8002b58:	4770      	bx	lr
 8002b5a:	bf00      	nop
 8002b5c:	40012400 	.word	0x40012400
 8002b60:	2000135a 	.word	0x2000135a

08002b64 <ADC1_Get>:
}

uint16_t ADC1_Get()
{
	return ADC1_value;
}
 8002b64:	4b01      	ldr	r3, [pc, #4]	; (8002b6c <ADC1_Get+0x8>)
 8002b66:	8818      	ldrh	r0, [r3, #0]
 8002b68:	4770      	bx	lr
 8002b6a:	bf00      	nop
 8002b6c:	2000135a 	.word	0x2000135a

08002b70 <LDRQueueInit>:

xQueueHandle ldr_queue;

void LDRQueueInit(void)
{
	  ldr_queue = xQueueCreate(2, sizeof(uint16_t));
 8002b70:	2102      	movs	r1, #2
{
 8002b72:	b508      	push	{r3, lr}
	  ldr_queue = xQueueCreate(2, sizeof(uint16_t));
 8002b74:	2200      	movs	r2, #0
 8002b76:	4608      	mov	r0, r1
 8002b78:	f7fe ff6a 	bl	8001a50 <xQueueGenericCreate>
 8002b7c:	4b01      	ldr	r3, [pc, #4]	; (8002b84 <LDRQueueInit+0x14>)
 8002b7e:	6018      	str	r0, [r3, #0]
 8002b80:	bd08      	pop	{r3, pc}
 8002b82:	bf00      	nop
 8002b84:	2000197c 	.word	0x2000197c

08002b88 <LDRQueue_Send>:
}

void LDRQueue_Send(uint16_t value)
{
 8002b88:	b507      	push	{r0, r1, r2, lr}
 8002b8a:	a902      	add	r1, sp, #8
 8002b8c:	f821 0d02 	strh.w	r0, [r1, #-2]!
	const portTickType xTicksToWait = 100 / portTICK_RATE_MS;
	xQueueSendToBack(ldr_queue, &value, xTicksToWait);
 8002b90:	4804      	ldr	r0, [pc, #16]	; (8002ba4 <LDRQueue_Send+0x1c>)
 8002b92:	2300      	movs	r3, #0
 8002b94:	2264      	movs	r2, #100	; 0x64
 8002b96:	6800      	ldr	r0, [r0, #0]
 8002b98:	f7fe ff7c 	bl	8001a94 <xQueueGenericSend>
}
 8002b9c:	b003      	add	sp, #12
 8002b9e:	f85d fb04 	ldr.w	pc, [sp], #4
 8002ba2:	bf00      	nop
 8002ba4:	2000197c 	.word	0x2000197c

08002ba8 <LDRQueue_Receive>:

uint16_t LDRQueue_Receive(void)
{
	uint16_t value;
	xQueueReceive(ldr_queue, &value, 0);
 8002ba8:	2300      	movs	r3, #0
{
 8002baa:	b507      	push	{r0, r1, r2, lr}
	xQueueReceive(ldr_queue, &value, 0);
 8002bac:	4805      	ldr	r0, [pc, #20]	; (8002bc4 <LDRQueue_Receive+0x1c>)
 8002bae:	461a      	mov	r2, r3
 8002bb0:	f10d 0106 	add.w	r1, sp, #6
 8002bb4:	6800      	ldr	r0, [r0, #0]
 8002bb6:	f7ff f823 	bl	8001c00 <xQueueGenericReceive>
	return value;
}
 8002bba:	f8bd 0006 	ldrh.w	r0, [sp, #6]
 8002bbe:	b003      	add	sp, #12
 8002bc0:	f85d fb04 	ldr.w	pc, [sp], #4
 8002bc4:	2000197c 	.word	0x2000197c

08002bc8 <LDRQueue_IsElements>:

bool LDRQueue_IsElements(void)
{
 8002bc8:	b508      	push	{r3, lr}
	if(uxQueueMessagesWaiting(ldr_queue) > 0)
 8002bca:	4b04      	ldr	r3, [pc, #16]	; (8002bdc <LDRQueue_IsElements+0x14>)
 8002bcc:	6818      	ldr	r0, [r3, #0]
 8002bce:	f7ff f8db 	bl	8001d88 <uxQueueMessagesWaiting>
	{
		return true;
	}
	return false;
}
 8002bd2:	3000      	adds	r0, #0
 8002bd4:	bf18      	it	ne
 8002bd6:	2001      	movne	r0, #1
 8002bd8:	bd08      	pop	{r3, pc}
 8002bda:	bf00      	nop
 8002bdc:	2000197c 	.word	0x2000197c

08002be0 <pxLDR>:
#include "ldr.h"
#include "ldr_queue.h"
#include "cmsis_os.h"

static void pxLDR(void * arg)
{
 8002be0:	b508      	push	{r3, lr}
	LDRInit();
 8002be2:	f7fd fde9 	bl	80007b8 <LDRInit>
	while(1)
	{
		uint16_t adc_value = LDR_Get();
 8002be6:	f7fd fde9 	bl	80007bc <LDR_Get>
		LDRQueue_Send(adc_value);
 8002bea:	f7ff ffcd 	bl	8002b88 <LDRQueue_Send>
		osDelay(100);
 8002bee:	2064      	movs	r0, #100	; 0x64
 8002bf0:	f7fe fc1e 	bl	8001430 <osDelay>
 8002bf4:	e7f7      	b.n	8002be6 <pxLDR+0x6>
	...

08002bf8 <LDRTaskInit>:
	}
}

void LDRTaskInit(void)
{
	xTaskCreate(pxLDR, "LDR", configMINIMAL_STACK_SIZE, NULL, osPriorityNormal, NULL);
 8002bf8:	2300      	movs	r3, #0
{
 8002bfa:	b507      	push	{r0, r1, r2, lr}
	xTaskCreate(pxLDR, "LDR", configMINIMAL_STACK_SIZE, NULL, osPriorityNormal, NULL);
 8002bfc:	2280      	movs	r2, #128	; 0x80
 8002bfe:	9301      	str	r3, [sp, #4]
 8002c00:	9300      	str	r3, [sp, #0]
 8002c02:	4903      	ldr	r1, [pc, #12]	; (8002c10 <LDRTaskInit+0x18>)
 8002c04:	4803      	ldr	r0, [pc, #12]	; (8002c14 <LDRTaskInit+0x1c>)
 8002c06:	f7ff f935 	bl	8001e74 <xTaskCreate>
}
 8002c0a:	b003      	add	sp, #12
 8002c0c:	f85d fb04 	ldr.w	pc, [sp], #4
 8002c10:	08004072 	.word	0x08004072
 8002c14:	08002be1 	.word	0x08002be1

08002c18 <MX_TIM4_Init>:
#include "led_driver.h"

void MX_TIM4_Init(void)
{
 8002c18:	b5f0      	push	{r4, r5, r6, r7, lr}
  LL_TIM_InitTypeDef TIM_InitStruct = {0};
 8002c1a:	2414      	movs	r4, #20
{
 8002c1c:	b095      	sub	sp, #84	; 0x54
  LL_TIM_InitTypeDef TIM_InitStruct = {0};
 8002c1e:	4622      	mov	r2, r4
 8002c20:	2100      	movs	r1, #0
 8002c22:	a802      	add	r0, sp, #8
  SET_BIT(RCC->APB1ENR, Periphs);
 8002c24:	4e3e      	ldr	r6, [pc, #248]	; (8002d20 <MX_TIM4_Init+0x108>)
 8002c26:	f000 fba2 	bl	800336e <memset>
  LL_TIM_OC_InitTypeDef TIM_OC_InitStruct = {0};
 8002c2a:	2220      	movs	r2, #32
 8002c2c:	2100      	movs	r1, #0
 8002c2e:	a80c      	add	r0, sp, #48	; 0x30
 8002c30:	f000 fb9d 	bl	800336e <memset>

  LL_GPIO_InitTypeDef GPIO_InitStruct = {0};
 8002c34:	4622      	mov	r2, r4
 8002c36:	2100      	movs	r1, #0
 8002c38:	a807      	add	r0, sp, #28
 8002c3a:	f000 fb98 	bl	800336e <memset>
 8002c3e:	69f3      	ldr	r3, [r6, #28]

  TIM_InitStruct.Prescaler = 0;
  TIM_InitStruct.CounterMode = LL_TIM_COUNTERMODE_UP;
  TIM_InitStruct.Autoreload = 4095;
  TIM_InitStruct.ClockDivision = LL_TIM_CLOCKDIVISION_DIV1;
  LL_TIM_Init(TIM4, &TIM_InitStruct);
 8002c40:	4c38      	ldr	r4, [pc, #224]	; (8002d24 <MX_TIM4_Init+0x10c>)
 8002c42:	f043 0304 	orr.w	r3, r3, #4
 8002c46:	61f3      	str	r3, [r6, #28]
  tmpreg = READ_BIT(RCC->APB1ENR, Periphs);
 8002c48:	69f3      	ldr	r3, [r6, #28]
 8002c4a:	a902      	add	r1, sp, #8
 8002c4c:	f003 0304 	and.w	r3, r3, #4
 8002c50:	9301      	str	r3, [sp, #4]
  (void)tmpreg;
 8002c52:	9b01      	ldr	r3, [sp, #4]
  TIM_InitStruct.Autoreload = 4095;
 8002c54:	f640 73ff 	movw	r3, #4095	; 0xfff
  LL_TIM_Init(TIM4, &TIM_InitStruct);
 8002c58:	4620      	mov	r0, r4
  TIM_InitStruct.Autoreload = 4095;
 8002c5a:	9304      	str	r3, [sp, #16]
  LL_TIM_Init(TIM4, &TIM_InitStruct);
 8002c5c:	f7fe fa50 	bl	8001100 <LL_TIM_Init>
  SET_BIT(TIMx->CR1, TIM_CR1_ARPE);
 8002c60:	6823      	ldr	r3, [r4, #0]
  LL_TIM_EnableARRPreload(TIM4);

  TIM_OC_InitStruct.OCMode = LL_TIM_OCMODE_PWM1;
  TIM_OC_InitStruct.OCState = LL_TIM_OCSTATE_DISABLE;
 8002c62:	2500      	movs	r5, #0
 8002c64:	f043 0380 	orr.w	r3, r3, #128	; 0x80
 8002c68:	6023      	str	r3, [r4, #0]
  TIM_OC_InitStruct.OCMode = LL_TIM_OCMODE_PWM1;
 8002c6a:	2360      	movs	r3, #96	; 0x60
  TIM_OC_InitStruct.OCState = LL_TIM_OCSTATE_DISABLE;
 8002c6c:	950d      	str	r5, [sp, #52]	; 0x34
  TIM_OC_InitStruct.OCMode = LL_TIM_OCMODE_PWM1;
 8002c6e:	930c      	str	r3, [sp, #48]	; 0x30
  TIM_OC_InitStruct.OCNState = LL_TIM_OCSTATE_DISABLE;
 8002c70:	950e      	str	r5, [sp, #56]	; 0x38
  return (uint32_t)(READ_REG(TIMx->ARR));
 8002c72:	6ae3      	ldr	r3, [r4, #44]	; 0x2c
  TIM_OC_InitStruct.CompareValue = LL_TIM_GetAutoReload(TIM4);
  TIM_OC_InitStruct.OCPolarity = LL_TIM_OCPOLARITY_HIGH;
  TIM_OC_InitStruct.OCNPolarity  = LL_TIM_OCPOLARITY_HIGH;
  TIM_OC_InitStruct.OCIdleState  = LL_TIM_OCIDLESTATE_LOW;
  TIM_OC_InitStruct.OCNIdleState = LL_TIM_OCIDLESTATE_LOW;
  LL_TIM_OC_Init(TIM4, LL_TIM_CHANNEL_CH1, &TIM_OC_InitStruct);
 8002c74:	aa0c      	add	r2, sp, #48	; 0x30
 8002c76:	2101      	movs	r1, #1
 8002c78:	4620      	mov	r0, r4
  TIM_OC_InitStruct.CompareValue = LL_TIM_GetAutoReload(TIM4);
 8002c7a:	930f      	str	r3, [sp, #60]	; 0x3c
  TIM_OC_InitStruct.OCPolarity = LL_TIM_OCPOLARITY_HIGH;
 8002c7c:	9510      	str	r5, [sp, #64]	; 0x40
  TIM_OC_InitStruct.OCNPolarity  = LL_TIM_OCPOLARITY_HIGH;
 8002c7e:	9511      	str	r5, [sp, #68]	; 0x44
  TIM_OC_InitStruct.OCIdleState  = LL_TIM_OCIDLESTATE_LOW;
 8002c80:	9512      	str	r5, [sp, #72]	; 0x48
  TIM_OC_InitStruct.OCNIdleState = LL_TIM_OCIDLESTATE_LOW;
 8002c82:	9513      	str	r5, [sp, #76]	; 0x4c
  LL_TIM_OC_Init(TIM4, LL_TIM_CHANNEL_CH1, &TIM_OC_InitStruct);
 8002c84:	f7fe fa74 	bl	8001170 <LL_TIM_OC_Init>
  CLEAR_BIT(*pReg, (TIM_CCMR1_OC1FE << SHIFT_TAB_OCxx[iChannel]));
 8002c88:	69a3      	ldr	r3, [r4, #24]

  LL_TIM_OC_DisableFast(TIM4, LL_TIM_CHANNEL_CH1);
  TIM_OC_InitStruct.OCState = LL_TIM_OCSTATE_DISABLE;
  TIM_OC_InitStruct.OCNState = LL_TIM_OCSTATE_DISABLE;
  LL_TIM_OC_Init(TIM4, LL_TIM_CHANNEL_CH2, &TIM_OC_InitStruct);
 8002c8a:	aa0c      	add	r2, sp, #48	; 0x30
 8002c8c:	f023 0304 	bic.w	r3, r3, #4
 8002c90:	61a3      	str	r3, [r4, #24]
 8002c92:	2110      	movs	r1, #16
 8002c94:	4620      	mov	r0, r4
  TIM_OC_InitStruct.OCState = LL_TIM_OCSTATE_DISABLE;
 8002c96:	950d      	str	r5, [sp, #52]	; 0x34
  TIM_OC_InitStruct.OCNState = LL_TIM_OCSTATE_DISABLE;
 8002c98:	950e      	str	r5, [sp, #56]	; 0x38
  LL_TIM_OC_Init(TIM4, LL_TIM_CHANNEL_CH2, &TIM_OC_InitStruct);
 8002c9a:	f7fe fa69 	bl	8001170 <LL_TIM_OC_Init>
 8002c9e:	69a3      	ldr	r3, [r4, #24]
  register uint32_t *pReg = (uint32_t *)((uint32_t)((uint32_t)(&TIMx->CCMR1) + OFFSET_TAB_CCMRx[iChannel]));
 8002ca0:	4f21      	ldr	r7, [pc, #132]	; (8002d28 <MX_TIM4_Init+0x110>)
  CLEAR_BIT(*pReg, (TIM_CCMR1_OC1FE << SHIFT_TAB_OCxx[iChannel]));
 8002ca2:	f423 6380 	bic.w	r3, r3, #1024	; 0x400
 8002ca6:	61a3      	str	r3, [r4, #24]

  LL_TIM_OC_DisableFast(TIM4, LL_TIM_CHANNEL_CH2);
  TIM_OC_InitStruct.OCState = LL_TIM_OCSTATE_DISABLE;
  TIM_OC_InitStruct.OCNState = LL_TIM_OCSTATE_DISABLE;
  LL_TIM_OC_Init(TIM4, LL_TIM_CHANNEL_CH3, &TIM_OC_InitStruct);
 8002ca8:	aa0c      	add	r2, sp, #48	; 0x30
 8002caa:	f44f 7180 	mov.w	r1, #256	; 0x100
 8002cae:	4620      	mov	r0, r4
  TIM_OC_InitStruct.OCState = LL_TIM_OCSTATE_DISABLE;
 8002cb0:	950d      	str	r5, [sp, #52]	; 0x34
  TIM_OC_InitStruct.OCNState = LL_TIM_OCSTATE_DISABLE;
 8002cb2:	950e      	str	r5, [sp, #56]	; 0x38
  LL_TIM_OC_Init(TIM4, LL_TIM_CHANNEL_CH3, &TIM_OC_InitStruct);
 8002cb4:	f7fe fa5c 	bl	8001170 <LL_TIM_OC_Init>
 8002cb8:	687b      	ldr	r3, [r7, #4]
    */
  GPIO_InitStruct.Pin = LL_GPIO_PIN_6|LL_GPIO_PIN_7|LL_GPIO_PIN_8;
  GPIO_InitStruct.Mode = LL_GPIO_MODE_ALTERNATE;
  GPIO_InitStruct.Speed = LL_GPIO_SPEED_FREQ_HIGH;
  GPIO_InitStruct.OutputType = LL_GPIO_OUTPUT_PUSHPULL;
  LL_GPIO_Init(GPIOB, &GPIO_InitStruct);
 8002cba:	a907      	add	r1, sp, #28
 8002cbc:	f023 0304 	bic.w	r3, r3, #4
 8002cc0:	607b      	str	r3, [r7, #4]
  MODIFY_REG(TIMx->CR2, TIM_CR2_MMS, TimerSynchronization);
 8002cc2:	6863      	ldr	r3, [r4, #4]
 8002cc4:	4819      	ldr	r0, [pc, #100]	; (8002d2c <MX_TIM4_Init+0x114>)
 8002cc6:	f023 0370 	bic.w	r3, r3, #112	; 0x70
 8002cca:	6063      	str	r3, [r4, #4]
  CLEAR_BIT(TIMx->SMCR, TIM_SMCR_MSM);
 8002ccc:	68a3      	ldr	r3, [r4, #8]
 8002cce:	f023 0380 	bic.w	r3, r3, #128	; 0x80
 8002cd2:	60a3      	str	r3, [r4, #8]
  SET_BIT(RCC->APB2ENR, Periphs);
 8002cd4:	69b3      	ldr	r3, [r6, #24]
 8002cd6:	f043 0308 	orr.w	r3, r3, #8
 8002cda:	61b3      	str	r3, [r6, #24]
  tmpreg = READ_BIT(RCC->APB2ENR, Periphs);
 8002cdc:	69b3      	ldr	r3, [r6, #24]
  GPIO_InitStruct.OutputType = LL_GPIO_OUTPUT_PUSHPULL;
 8002cde:	950a      	str	r5, [sp, #40]	; 0x28
 8002ce0:	f003 0308 	and.w	r3, r3, #8
 8002ce4:	9300      	str	r3, [sp, #0]
  (void)tmpreg;
 8002ce6:	9b00      	ldr	r3, [sp, #0]
  GPIO_InitStruct.Pin = LL_GPIO_PIN_6|LL_GPIO_PIN_7|LL_GPIO_PIN_8;
 8002ce8:	4b11      	ldr	r3, [pc, #68]	; (8002d30 <MX_TIM4_Init+0x118>)
 8002cea:	9307      	str	r3, [sp, #28]
  GPIO_InitStruct.Mode = LL_GPIO_MODE_ALTERNATE;
 8002cec:	2309      	movs	r3, #9
 8002cee:	9308      	str	r3, [sp, #32]
  GPIO_InitStruct.Speed = LL_GPIO_SPEED_FREQ_HIGH;
 8002cf0:	2303      	movs	r3, #3
 8002cf2:	9309      	str	r3, [sp, #36]	; 0x24
  LL_GPIO_Init(GPIOB, &GPIO_InitStruct);
 8002cf4:	f7fe f926 	bl	8000f44 <LL_GPIO_Init>
  SET_BIT(TIMx->CCER, Channels);
 8002cf8:	6a23      	ldr	r3, [r4, #32]
 8002cfa:	f443 7388 	orr.w	r3, r3, #272	; 0x110
 8002cfe:	f043 0301 	orr.w	r3, r3, #1
 8002d02:	6223      	str	r3, [r4, #32]
  SET_BIT(TIMx->CR1, TIM_CR1_CEN);
 8002d04:	6823      	ldr	r3, [r4, #0]
 8002d06:	f043 0301 	orr.w	r3, r3, #1
 8002d0a:	6023      	str	r3, [r4, #0]
  SET_BIT(TIMx->EGR, TIM_EGR_UG);
 8002d0c:	6963      	ldr	r3, [r4, #20]
 8002d0e:	f043 0301 	orr.w	r3, r3, #1
 8002d12:	6163      	str	r3, [r4, #20]
  WRITE_REG(TIMx->CCR1, CompareValue);
 8002d14:	6365      	str	r5, [r4, #52]	; 0x34
  WRITE_REG(TIMx->CCR2, CompareValue);
 8002d16:	63a5      	str	r5, [r4, #56]	; 0x38
  WRITE_REG(TIMx->CCR3, CompareValue);
 8002d18:	63e5      	str	r5, [r4, #60]	; 0x3c
  LL_TIM_GenerateEvent_UPDATE(TIM4);

  LL_TIM_OC_SetCompareCH1(TIM4, 0);
  LL_TIM_OC_SetCompareCH2(TIM4, 0);
  LL_TIM_OC_SetCompareCH3(TIM4, 0);
}
 8002d1a:	b015      	add	sp, #84	; 0x54
 8002d1c:	bdf0      	pop	{r4, r5, r6, r7, pc}
 8002d1e:	bf00      	nop
 8002d20:	40021000 	.word	0x40021000
 8002d24:	40000800 	.word	0x40000800
 8002d28:	40000818 	.word	0x40000818
 8002d2c:	40010c00 	.word	0x40010c00
 8002d30:	0401c0c1 	.word	0x0401c0c1

08002d34 <TIM4_SET_CH1>:
  WRITE_REG(TIMx->CCR1, CompareValue);
 8002d34:	4b01      	ldr	r3, [pc, #4]	; (8002d3c <TIM4_SET_CH1+0x8>)
 8002d36:	6358      	str	r0, [r3, #52]	; 0x34
 8002d38:	4770      	bx	lr
 8002d3a:	bf00      	nop
 8002d3c:	40000800 	.word	0x40000800

08002d40 <TIM4_SET_CH2>:
  WRITE_REG(TIMx->CCR2, CompareValue);
 8002d40:	4b01      	ldr	r3, [pc, #4]	; (8002d48 <TIM4_SET_CH2+0x8>)
 8002d42:	6398      	str	r0, [r3, #56]	; 0x38
 8002d44:	4770      	bx	lr
 8002d46:	bf00      	nop
 8002d48:	40000800 	.word	0x40000800

08002d4c <TIM4_SET_CH3>:
  WRITE_REG(TIMx->CCR3, CompareValue);
 8002d4c:	4b01      	ldr	r3, [pc, #4]	; (8002d54 <TIM4_SET_CH3+0x8>)
 8002d4e:	63d8      	str	r0, [r3, #60]	; 0x3c
 8002d50:	4770      	bx	lr
 8002d52:	bf00      	nop
 8002d54:	40000800 	.word	0x40000800

08002d58 <pxLed>:
	if(value < 0) value = 0;
	return value;
}

static void pxLed(void * arg)
{
 8002d58:	b5f7      	push	{r0, r1, r2, r4, r5, r6, r7, lr}
	LedInit();
 8002d5a:	f7fd fd47 	bl	80007ec <LedInit>

	uint16_t ldr_value = 4095;
 8002d5e:	f640 76ff 	movw	r6, #4095	; 0xfff
	EncoderRotateInfo xEncoder_info;

	while(1)
	{
		if(EncoderQueue_IsElements())
 8002d62:	f7ff fdb3 	bl	80028cc <EncoderQueue_IsElements>
 8002d66:	b1f8      	cbz	r0, 8002da8 <pxLed+0x50>
		{
			xEncoder_info = EncoderQueue_Receive();
 8002d68:	f7ff fd9a 	bl	80028a0 <EncoderQueue_Receive>
 8002d6c:	9001      	str	r0, [sp, #4]
 8002d6e:	b207      	sxth	r7, r0
			int16_t red = Led_Get_Color(eRed), green = Led_Get_Color(eGreen), blue = Led_Get_Color(eBlue);
 8002d70:	2000      	movs	r0, #0
 8002d72:	f7fd fd57 	bl	8000824 <Led_Get_Color>
 8002d76:	b204      	sxth	r4, r0
 8002d78:	2001      	movs	r0, #1
 8002d7a:	f7fd fd53 	bl	8000824 <Led_Get_Color>
 8002d7e:	b205      	sxth	r5, r0
 8002d80:	2002      	movs	r0, #2
 8002d82:	f7fd fd4f 	bl	8000824 <Led_Get_Color>

			switch(xEncoder_info.button)
 8002d86:	f99d 3006 	ldrsb.w	r3, [sp, #6]
			int16_t red = Led_Get_Color(eRed), green = Led_Get_Color(eGreen), blue = Led_Get_Color(eBlue);
 8002d8a:	b200      	sxth	r0, r0
			switch(xEncoder_info.button)
 8002d8c:	3b01      	subs	r3, #1
 8002d8e:	2b03      	cmp	r3, #3
 8002d90:	d80a      	bhi.n	8002da8 <pxLed+0x50>
 8002d92:	e8df f003 	tbb	[pc, r3]
 8002d96:	1602      	.short	0x1602
 8002d98:	221c      	.short	0x221c
			{
				case 0: break;
				case 1:
					{
						Led_Set_Color(eRed, constrain(red + xEncoder_info.state));
 8002d9a:	2000      	movs	r0, #0
 8002d9c:	19e1      	adds	r1, r4, r7
	return value;
 8002d9e:	f381 010c 	usat	r1, #12, r1
						Led_Set_Color(eRed, constrain(red + xEncoder_info.state));
 8002da2:	b289      	uxth	r1, r1
						break;
					}
				case 2:
					{
						Led_Set_Color(eGreen, constrain(green + xEncoder_info.state));
 8002da4:	f7fd fd2c 	bl	8000800 <Led_Set_Color>
						break;
					}
				default: break;
			}
		}
		if(LDRQueue_IsElements())
 8002da8:	f7ff ff0e 	bl	8002bc8 <LDRQueue_IsElements>
 8002dac:	b110      	cbz	r0, 8002db4 <pxLed+0x5c>
		{
			 ldr_value = LDRQueue_Receive();
 8002dae:	f7ff fefb 	bl	8002ba8 <LDRQueue_Receive>
 8002db2:	4606      	mov	r6, r0
		}

		Led_Refresh(ldr_value);
 8002db4:	4630      	mov	r0, r6
 8002db6:	f7fd fd47 	bl	8000848 <Led_Refresh>
		osDelay(10);
 8002dba:	200a      	movs	r0, #10
 8002dbc:	f7fe fb38 	bl	8001430 <osDelay>
		if(EncoderQueue_IsElements())
 8002dc0:	e7cf      	b.n	8002d62 <pxLed+0xa>
						Led_Set_Color(eGreen, constrain(green + xEncoder_info.state));
 8002dc2:	19e9      	adds	r1, r5, r7
	return value;
 8002dc4:	f381 010c 	usat	r1, #12, r1
						Led_Set_Color(eGreen, constrain(green + xEncoder_info.state));
 8002dc8:	b289      	uxth	r1, r1
 8002dca:	2001      	movs	r0, #1
 8002dcc:	e7ea      	b.n	8002da4 <pxLed+0x4c>
						Led_Set_Color(eBlue, constrain(blue + xEncoder_info.state));
 8002dce:	19c1      	adds	r1, r0, r7
	return value;
 8002dd0:	f381 010c 	usat	r1, #12, r1
						Led_Set_Color(eBlue, constrain(blue + xEncoder_info.state));
 8002dd4:	b289      	uxth	r1, r1
 8002dd6:	2002      	movs	r0, #2
 8002dd8:	e7e4      	b.n	8002da4 <pxLed+0x4c>
	return value;
 8002dda:	f640 73ff 	movw	r3, #4095	; 0xfff
						Led_Set(constrain(red + xEncoder_info.state), constrain(green + xEncoder_info.state), constrain(blue + xEncoder_info.state));
 8002dde:	19c2      	adds	r2, r0, r7
	return value;
 8002de0:	ea22 72e2 	bic.w	r2, r2, r2, asr #31
						Led_Set(constrain(red + xEncoder_info.state), constrain(green + xEncoder_info.state), constrain(blue + xEncoder_info.state));
 8002de4:	19e9      	adds	r1, r5, r7
	return value;
 8002de6:	429a      	cmp	r2, r3
 8002de8:	ea21 71e1 	bic.w	r1, r1, r1, asr #31
						Led_Set(constrain(red + xEncoder_info.state), constrain(green + xEncoder_info.state), constrain(blue + xEncoder_info.state));
 8002dec:	eb04 0007 	add.w	r0, r4, r7
	return value;
 8002df0:	bfa8      	it	ge
 8002df2:	461a      	movge	r2, r3
 8002df4:	ea20 70e0 	bic.w	r0, r0, r0, asr #31
 8002df8:	4299      	cmp	r1, r3
 8002dfa:	bfa8      	it	ge
 8002dfc:	4619      	movge	r1, r3
 8002dfe:	4298      	cmp	r0, r3
 8002e00:	bfa8      	it	ge
 8002e02:	4618      	movge	r0, r3
						Led_Set(constrain(red + xEncoder_info.state), constrain(green + xEncoder_info.state), constrain(blue + xEncoder_info.state));
 8002e04:	b292      	uxth	r2, r2
 8002e06:	b289      	uxth	r1, r1
 8002e08:	b280      	uxth	r0, r0
 8002e0a:	f7fd fcf1 	bl	80007f0 <Led_Set>
						break;
 8002e0e:	e7cb      	b.n	8002da8 <pxLed+0x50>

08002e10 <LedTaskInit>:
	}
}

void LedTaskInit(void)
{
	xTaskCreate(pxLed, "Led", configMINIMAL_STACK_SIZE, NULL, osPriorityNormal, NULL);
 8002e10:	2300      	movs	r3, #0
{
 8002e12:	b507      	push	{r0, r1, r2, lr}
	xTaskCreate(pxLed, "Led", configMINIMAL_STACK_SIZE, NULL, osPriorityNormal, NULL);
 8002e14:	2280      	movs	r2, #128	; 0x80
 8002e16:	9301      	str	r3, [sp, #4]
 8002e18:	9300      	str	r3, [sp, #0]
 8002e1a:	4903      	ldr	r1, [pc, #12]	; (8002e28 <LedTaskInit+0x18>)
 8002e1c:	4803      	ldr	r0, [pc, #12]	; (8002e2c <LedTaskInit+0x1c>)
 8002e1e:	f7ff f829 	bl	8001e74 <xTaskCreate>
}
 8002e22:	b003      	add	sp, #12
 8002e24:	f85d fb04 	ldr.w	pc, [sp], #4
 8002e28:	08004076 	.word	0x08004076
 8002e2c:	08002d59 	.word	0x08002d59

08002e30 <StatusLedInit>:
  SET_BIT(RCC->APB2ENR, Periphs);
 8002e30:	4b13      	ldr	r3, [pc, #76]	; (8002e80 <StatusLedInit+0x50>)
#include "status_led.h"
#include "main.h"

void StatusLedInit(void)
{
 8002e32:	b500      	push	{lr}
 8002e34:	699a      	ldr	r2, [r3, #24]
 8002e36:	b089      	sub	sp, #36	; 0x24
 8002e38:	f042 0204 	orr.w	r2, r2, #4
 8002e3c:	619a      	str	r2, [r3, #24]
  tmpreg = READ_BIT(RCC->APB2ENR, Periphs);
 8002e3e:	699a      	ldr	r2, [r3, #24]
	LL_APB2_GRP1_EnableClock(LL_APB2_GRP1_PERIPH_GPIOA);
	LL_APB2_GRP1_EnableClock(LL_APB2_GRP1_PERIPH_GPIOB);

  	LL_GPIO_InitTypeDef GPIO_InitStruct = {0};
 8002e40:	2100      	movs	r1, #0
 8002e42:	f002 0204 	and.w	r2, r2, #4
 8002e46:	9202      	str	r2, [sp, #8]
  (void)tmpreg;
 8002e48:	9a02      	ldr	r2, [sp, #8]
  SET_BIT(RCC->APB2ENR, Periphs);
 8002e4a:	699a      	ldr	r2, [r3, #24]
 8002e4c:	a803      	add	r0, sp, #12
 8002e4e:	f042 0208 	orr.w	r2, r2, #8
 8002e52:	619a      	str	r2, [r3, #24]
  tmpreg = READ_BIT(RCC->APB2ENR, Periphs);
 8002e54:	699b      	ldr	r3, [r3, #24]
 8002e56:	2214      	movs	r2, #20
 8002e58:	f003 0308 	and.w	r3, r3, #8
 8002e5c:	9301      	str	r3, [sp, #4]
  (void)tmpreg;
 8002e5e:	9b01      	ldr	r3, [sp, #4]
 8002e60:	f000 fa85 	bl	800336e <memset>

    GPIO_InitStruct.Pin = LL_GPIO_PIN_13;
 8002e64:	4b07      	ldr	r3, [pc, #28]	; (8002e84 <StatusLedInit+0x54>)
    GPIO_InitStruct.Mode = LL_GPIO_MODE_OUTPUT;
    GPIO_InitStruct.Speed = LL_GPIO_SPEED_FREQ_HIGH;
    GPIO_InitStruct.OutputType = LL_GPIO_OUTPUT_PUSHPULL;
    GPIO_InitStruct.Pull = LL_GPIO_PULL_DOWN;
    LL_GPIO_Init(GPIOB, &GPIO_InitStruct);
 8002e66:	a903      	add	r1, sp, #12
    GPIO_InitStruct.Pin = LL_GPIO_PIN_13;
 8002e68:	9303      	str	r3, [sp, #12]
    GPIO_InitStruct.Mode = LL_GPIO_MODE_OUTPUT;
 8002e6a:	2301      	movs	r3, #1
 8002e6c:	9304      	str	r3, [sp, #16]
    GPIO_InitStruct.Speed = LL_GPIO_SPEED_FREQ_HIGH;
 8002e6e:	2303      	movs	r3, #3
    LL_GPIO_Init(GPIOB, &GPIO_InitStruct);
 8002e70:	4805      	ldr	r0, [pc, #20]	; (8002e88 <StatusLedInit+0x58>)
    GPIO_InitStruct.Speed = LL_GPIO_SPEED_FREQ_HIGH;
 8002e72:	9305      	str	r3, [sp, #20]
    LL_GPIO_Init(GPIOB, &GPIO_InitStruct);
 8002e74:	f7fe f866 	bl	8000f44 <LL_GPIO_Init>
}
 8002e78:	b009      	add	sp, #36	; 0x24
 8002e7a:	f85d fb04 	ldr.w	pc, [sp], #4
 8002e7e:	bf00      	nop
 8002e80:	40021000 	.word	0x40021000
 8002e84:	04200020 	.word	0x04200020
 8002e88:	40010c00 	.word	0x40010c00

08002e8c <StatusLedON>:
  WRITE_REG(GPIOx->BSRR, (PinMask >> GPIO_PIN_MASK_POS) & 0x0000FFFFU);
 8002e8c:	f44f 5200 	mov.w	r2, #8192	; 0x2000
 8002e90:	4b01      	ldr	r3, [pc, #4]	; (8002e98 <StatusLedON+0xc>)
 8002e92:	611a      	str	r2, [r3, #16]
 8002e94:	4770      	bx	lr
 8002e96:	bf00      	nop
 8002e98:	40010c00 	.word	0x40010c00

08002e9c <ErrorBlink>:
{
	LL_GPIO_ResetOutputPin(GPIOB, LL_GPIO_PIN_13);
}

void ErrorBlink()
{
 8002e9c:	b508      	push	{r3, lr}
  WRITE_REG(GPIOx->ODR, READ_REG(GPIOx->ODR) ^ ((PinMask >> GPIO_PIN_MASK_POS) & 0x0000FFFFU));
 8002e9e:	4c04      	ldr	r4, [pc, #16]	; (8002eb0 <ErrorBlink+0x14>)
 8002ea0:	68e3      	ldr	r3, [r4, #12]
	while(1)
	{
		LL_GPIO_TogglePin(GPIOB, LL_GPIO_PIN_13);
		LL_mDelay(200);
 8002ea2:	20c8      	movs	r0, #200	; 0xc8
 8002ea4:	f483 5300 	eor.w	r3, r3, #8192	; 0x2000
 8002ea8:	60e3      	str	r3, [r4, #12]
 8002eaa:	f7fe fa89 	bl	80013c0 <LL_mDelay>
 8002eae:	e7f7      	b.n	8002ea0 <ErrorBlink+0x4>
 8002eb0:	40010c00 	.word	0x40010c00

08002eb4 <USART_SendData_byte>:
  * @param  Value between Min_Data=0x00 and Max_Data=0xFF
  * @retval None
  */
__STATIC_INLINE void LL_USART_TransmitData8(USART_TypeDef *USARTx, uint8_t Value)
{
  USARTx->DR = Value;
 8002eb4:	4b02      	ldr	r3, [pc, #8]	; (8002ec0 <USART_SendData_byte+0xc>)
 8002eb6:	6058      	str	r0, [r3, #4]
  return (READ_BIT(USARTx->SR, USART_SR_TC) == (USART_SR_TC));
 8002eb8:	681a      	ldr	r2, [r3, #0]
//char uart_rx_buffer[512];

void USART_SendData_byte(char data)
{
	LL_USART_TransmitData8(USART1, data);
	while (!LL_USART_IsActiveFlag_TC(USART1));
 8002eba:	0652      	lsls	r2, r2, #25
 8002ebc:	d5fc      	bpl.n	8002eb8 <USART_SendData_byte+0x4>
}
 8002ebe:	4770      	bx	lr
 8002ec0:	40013800 	.word	0x40013800

08002ec4 <USART_SendData>:

void USART_SendData(char * data, uint32_t data_length)
{
 8002ec4:	b570      	push	{r4, r5, r6, lr}
 8002ec6:	4604      	mov	r4, r0
  USARTx->DR = Value;
 8002ec8:	4d07      	ldr	r5, [pc, #28]	; (8002ee8 <USART_SendData+0x24>)
 8002eca:	1846      	adds	r6, r0, r1
	for(int i = 0; i < data_length; i++)
 8002ecc:	42b4      	cmp	r4, r6
 8002ece:	d100      	bne.n	8002ed2 <USART_SendData+0xe>
	{
		LL_USART_TransmitData8(USART1, data[i]);
		LL_mDelay(2);
		while (!LL_USART_IsActiveFlag_TC(USART1));
	}
}
 8002ed0:	bd70      	pop	{r4, r5, r6, pc}
		LL_USART_TransmitData8(USART1, data[i]);
 8002ed2:	f814 3b01 	ldrb.w	r3, [r4], #1
		LL_mDelay(2);
 8002ed6:	2002      	movs	r0, #2
 8002ed8:	606b      	str	r3, [r5, #4]
 8002eda:	f7fe fa71 	bl	80013c0 <LL_mDelay>
  return (READ_BIT(USARTx->SR, USART_SR_TC) == (USART_SR_TC));
 8002ede:	682b      	ldr	r3, [r5, #0]
		while (!LL_USART_IsActiveFlag_TC(USART1));
 8002ee0:	065b      	lsls	r3, r3, #25
 8002ee2:	d5fc      	bpl.n	8002ede <USART_SendData+0x1a>
 8002ee4:	e7f2      	b.n	8002ecc <USART_SendData+0x8>
 8002ee6:	bf00      	nop
 8002ee8:	40013800 	.word	0x40013800

08002eec <USART_CharReception_Callback>:

void USART_CharReception_Callback(void)
{
 8002eec:	b507      	push	{r0, r1, r2, lr}
  return (uint8_t)(READ_BIT(USARTx->DR, USART_DR_DR));
 8002eee:	4b05      	ldr	r3, [pc, #20]	; (8002f04 <USART_CharReception_Callback+0x18>)
 8002ef0:	685b      	ldr	r3, [r3, #4]
 8002ef2:	b2db      	uxtb	r3, r3
	__IO uint32_t received_char;
	received_char = LL_USART_ReceiveData8(USART1);
 8002ef4:	9301      	str	r3, [sp, #4]

	RingBuff_Push(received_char);
 8002ef6:	9801      	ldr	r0, [sp, #4]
 8002ef8:	b2c0      	uxtb	r0, r0
 8002efa:	f7fd fda9 	bl	8000a50 <RingBuff_Push>
  //LL_USART_TransmitData8(USART1, received_char);
}
 8002efe:	b003      	add	sp, #12
 8002f00:	f85d fb04 	ldr.w	pc, [sp], #4
 8002f04:	40013800 	.word	0x40013800

08002f08 <Error_Callback>:
  NVIC->ICER[(((uint32_t)(int32_t)IRQn) >> 5UL)] = (uint32_t)(1UL << (((uint32_t)(int32_t)IRQn) & 0x1FUL));
 8002f08:	2220      	movs	r2, #32
 8002f0a:	4b05      	ldr	r3, [pc, #20]	; (8002f20 <Error_Callback+0x18>)

void Error_Callback(void)
{
 8002f0c:	b082      	sub	sp, #8
 8002f0e:	f8c3 2084 	str.w	r2, [r3, #132]	; 0x84
  __IO uint32_t sr_reg;

  NVIC_DisableIRQ(USART1_IRQn);

  sr_reg = LL_USART_ReadReg(USART1, SR);
 8002f12:	4b04      	ldr	r3, [pc, #16]	; (8002f24 <Error_Callback+0x1c>)
 8002f14:	681b      	ldr	r3, [r3, #0]
 8002f16:	9301      	str	r3, [sp, #4]
  if (sr_reg & LL_USART_SR_NE)
 8002f18:	9b01      	ldr	r3, [sp, #4]
  {

  }
}
 8002f1a:	b002      	add	sp, #8
 8002f1c:	4770      	bx	lr
 8002f1e:	bf00      	nop
 8002f20:	e000e100 	.word	0xe000e100
 8002f24:	40013800 	.word	0x40013800

08002f28 <USART1_IRQHandler>:
  return (READ_BIT(USARTx->SR, USART_SR_RXNE) == (USART_SR_RXNE));
 8002f28:	4b05      	ldr	r3, [pc, #20]	; (8002f40 <USART1_IRQHandler+0x18>)
 8002f2a:	681a      	ldr	r2, [r3, #0]

void USART1_IRQHandler(void)
{
  if(LL_USART_IsActiveFlag_RXNE(USART1) && LL_USART_IsEnabledIT_RXNE(USART1))
 8002f2c:	0692      	lsls	r2, r2, #26
 8002f2e:	d504      	bpl.n	8002f3a <USART1_IRQHandler+0x12>
  return (READ_BIT(USARTx->CR1, USART_CR1_RXNEIE) == (USART_CR1_RXNEIE));
 8002f30:	68db      	ldr	r3, [r3, #12]
 8002f32:	069b      	lsls	r3, r3, #26
 8002f34:	d501      	bpl.n	8002f3a <USART1_IRQHandler+0x12>
  {
    USART_CharReception_Callback();
 8002f36:	f7ff bfd9 	b.w	8002eec <USART_CharReception_Callback>
  }
  else
  {
    Error_Callback();
 8002f3a:	f7ff bfe5 	b.w	8002f08 <Error_Callback>
 8002f3e:	bf00      	nop
 8002f40:	40013800 	.word	0x40013800

08002f44 <USART1_Device_Reset>:
  }
}

void USART1_Device_Reset(void)
{
 8002f44:	b538      	push	{r3, r4, r5, lr}
  WRITE_REG(GPIOx->BRR, (PinMask >> GPIO_PIN_MASK_POS) & 0x0000FFFFU);
 8002f46:	f44f 7580 	mov.w	r5, #256	; 0x100
 8002f4a:	4c03      	ldr	r4, [pc, #12]	; (8002f58 <USART1_Device_Reset+0x14>)
	LL_GPIO_ResetOutputPin(GPIOA, LL_GPIO_PIN_8);
	LL_mDelay(100);
 8002f4c:	2064      	movs	r0, #100	; 0x64
 8002f4e:	6165      	str	r5, [r4, #20]
 8002f50:	f7fe fa36 	bl	80013c0 <LL_mDelay>
  WRITE_REG(GPIOx->BSRR, (PinMask >> GPIO_PIN_MASK_POS) & 0x0000FFFFU);
 8002f54:	6125      	str	r5, [r4, #16]
 8002f56:	bd38      	pop	{r3, r4, r5, pc}
 8002f58:	40010800 	.word	0x40010800

08002f5c <MX_USART1_UART_Init>:
	LL_GPIO_SetOutputPin(GPIOA, LL_GPIO_PIN_8);
}

void MX_USART1_UART_Init(void)
{
 8002f5c:	e92d 41f0 	stmdb	sp!, {r4, r5, r6, r7, r8, lr}
 8002f60:	b08e      	sub	sp, #56	; 0x38
  LL_USART_InitTypeDef USART_InitStruct = {0};
 8002f62:	2218      	movs	r2, #24
 8002f64:	2100      	movs	r1, #0
 8002f66:	a808      	add	r0, sp, #32
 8002f68:	f000 fa01 	bl	800336e <memset>

  LL_GPIO_InitTypeDef GPIO_InitStruct = {0};
 8002f6c:	2214      	movs	r2, #20
 8002f6e:	2100      	movs	r1, #0
 8002f70:	a803      	add	r0, sp, #12
 8002f72:	f000 f9fc 	bl	800336e <memset>
  SET_BIT(RCC->APB2ENR, Periphs);
 8002f76:	4b34      	ldr	r3, [pc, #208]	; (8003048 <MX_USART1_UART_Init+0xec>)

  GPIO_InitStruct.Pin = LL_GPIO_PIN_9;
  GPIO_InitStruct.Mode = LL_GPIO_MODE_ALTERNATE;
  GPIO_InitStruct.Speed = LL_GPIO_SPEED_FREQ_HIGH;
  GPIO_InitStruct.OutputType = LL_GPIO_OUTPUT_PUSHPULL;
  GPIO_InitStruct.Pull = LL_GPIO_PULL_UP;
 8002f78:	2701      	movs	r7, #1
 8002f7a:	699a      	ldr	r2, [r3, #24]
  GPIO_InitStruct.Speed = LL_GPIO_SPEED_FREQ_HIGH;
 8002f7c:	f04f 0803 	mov.w	r8, #3
 8002f80:	f442 4280 	orr.w	r2, r2, #16384	; 0x4000
 8002f84:	619a      	str	r2, [r3, #24]
  tmpreg = READ_BIT(RCC->APB2ENR, Periphs);
 8002f86:	699a      	ldr	r2, [r3, #24]
  LL_GPIO_Init(GPIOA, &GPIO_InitStruct);
 8002f88:	4e30      	ldr	r6, [pc, #192]	; (800304c <MX_USART1_UART_Init+0xf0>)
 8002f8a:	f402 4280 	and.w	r2, r2, #16384	; 0x4000
 8002f8e:	9202      	str	r2, [sp, #8]
  (void)tmpreg;
 8002f90:	9a02      	ldr	r2, [sp, #8]
  SET_BIT(RCC->APB2ENR, Periphs);
 8002f92:	699a      	ldr	r2, [r3, #24]
 8002f94:	a903      	add	r1, sp, #12
 8002f96:	f042 0204 	orr.w	r2, r2, #4
 8002f9a:	619a      	str	r2, [r3, #24]
  tmpreg = READ_BIT(RCC->APB2ENR, Periphs);
 8002f9c:	699b      	ldr	r3, [r3, #24]
 8002f9e:	4630      	mov	r0, r6
 8002fa0:	f003 0304 	and.w	r3, r3, #4
 8002fa4:	9301      	str	r3, [sp, #4]
  (void)tmpreg;
 8002fa6:	9b01      	ldr	r3, [sp, #4]
  GPIO_InitStruct.Pin = LL_GPIO_PIN_9;
 8002fa8:	4b29      	ldr	r3, [pc, #164]	; (8003050 <MX_USART1_UART_Init+0xf4>)
  GPIO_InitStruct.Speed = LL_GPIO_SPEED_FREQ_HIGH;
 8002faa:	f8cd 8014 	str.w	r8, [sp, #20]
  GPIO_InitStruct.Pin = LL_GPIO_PIN_9;
 8002fae:	9303      	str	r3, [sp, #12]
  GPIO_InitStruct.Mode = LL_GPIO_MODE_ALTERNATE;
 8002fb0:	2309      	movs	r3, #9
  GPIO_InitStruct.Pull = LL_GPIO_PULL_UP;
 8002fb2:	9707      	str	r7, [sp, #28]
  GPIO_InitStruct.Mode = LL_GPIO_MODE_ALTERNATE;
 8002fb4:	9304      	str	r3, [sp, #16]
  LL_GPIO_Init(GPIOA, &GPIO_InitStruct);
 8002fb6:	f7fd ffc5 	bl	8000f44 <LL_GPIO_Init>

  GPIO_InitStruct.Pin = LL_GPIO_PIN_10;
 8002fba:	4b26      	ldr	r3, [pc, #152]	; (8003054 <MX_USART1_UART_Init+0xf8>)
  GPIO_InitStruct.Mode = LL_GPIO_MODE_FLOATING;

  GPIO_InitStruct.Speed = LL_GPIO_SPEED_FREQ_HIGH;
  GPIO_InitStruct.Pull = LL_GPIO_PULL_UP;

  LL_GPIO_Init(GPIOA, &GPIO_InitStruct);
 8002fbc:	a903      	add	r1, sp, #12
  GPIO_InitStruct.Pin = LL_GPIO_PIN_10;
 8002fbe:	9303      	str	r3, [sp, #12]
  GPIO_InitStruct.Mode = LL_GPIO_MODE_FLOATING;
 8002fc0:	2304      	movs	r3, #4
  LL_GPIO_Init(GPIOA, &GPIO_InitStruct);
 8002fc2:	4630      	mov	r0, r6
    NVIC->IP[((uint32_t)(int32_t)IRQn)]               = (uint8_t)((priority << (8U - __NVIC_PRIO_BITS)) & (uint32_t)0xFFUL);
 8002fc4:	2500      	movs	r5, #0
  GPIO_InitStruct.Mode = LL_GPIO_MODE_FLOATING;
 8002fc6:	9304      	str	r3, [sp, #16]
  GPIO_InitStruct.Speed = LL_GPIO_SPEED_FREQ_HIGH;
 8002fc8:	f8cd 8014 	str.w	r8, [sp, #20]
  GPIO_InitStruct.Pull = LL_GPIO_PULL_UP;
 8002fcc:	9707      	str	r7, [sp, #28]
  LL_GPIO_Init(GPIOA, &GPIO_InitStruct);
 8002fce:	f7fd ffb9 	bl	8000f44 <LL_GPIO_Init>
  NVIC->ISER[(((uint32_t)(int32_t)IRQn) >> 5UL)] = (uint32_t)(1UL << (((uint32_t)(int32_t)IRQn) & 0x1FUL));
 8002fd2:	2220      	movs	r2, #32
  return ((uint32_t)((SCB->AIRCR & SCB_AIRCR_PRIGROUP_Msk) >> SCB_AIRCR_PRIGROUP_Pos));
 8002fd4:	4b20      	ldr	r3, [pc, #128]	; (8003058 <MX_USART1_UART_Init+0xfc>)
  USART_InitStruct.StopBits = LL_USART_STOPBITS_1;
  USART_InitStruct.Parity = LL_USART_PARITY_NONE;
  USART_InitStruct.TransferDirection = LL_USART_DIRECTION_TX_RX;
  USART_InitStruct.HardwareFlowControl = LL_USART_HWCONTROL_NONE;

  LL_USART_Init(USART1, &USART_InitStruct);
 8002fd6:	4c21      	ldr	r4, [pc, #132]	; (800305c <MX_USART1_UART_Init+0x100>)
 8002fd8:	68db      	ldr	r3, [r3, #12]
    NVIC->IP[((uint32_t)(int32_t)IRQn)]               = (uint8_t)((priority << (8U - __NVIC_PRIO_BITS)) & (uint32_t)0xFFUL);
 8002fda:	4b21      	ldr	r3, [pc, #132]	; (8003060 <MX_USART1_UART_Init+0x104>)
 8002fdc:	eb0d 0102 	add.w	r1, sp, r2
 8002fe0:	f883 5325 	strb.w	r5, [r3, #805]	; 0x325
  NVIC->ISER[(((uint32_t)(int32_t)IRQn) >> 5UL)] = (uint32_t)(1UL << (((uint32_t)(int32_t)IRQn) & 0x1FUL));
 8002fe4:	605a      	str	r2, [r3, #4]
  USART_InitStruct.BaudRate = 115200;
 8002fe6:	f44f 33e1 	mov.w	r3, #115200	; 0x1c200
 8002fea:	9308      	str	r3, [sp, #32]
  USART_InitStruct.TransferDirection = LL_USART_DIRECTION_TX_RX;
 8002fec:	230c      	movs	r3, #12
  LL_USART_Init(USART1, &USART_InitStruct);
 8002fee:	4620      	mov	r0, r4
  USART_InitStruct.TransferDirection = LL_USART_DIRECTION_TX_RX;
 8002ff0:	930c      	str	r3, [sp, #48]	; 0x30
  USART_InitStruct.DataWidth = LL_USART_DATAWIDTH_8B;
 8002ff2:	9509      	str	r5, [sp, #36]	; 0x24
  USART_InitStruct.StopBits = LL_USART_STOPBITS_1;
 8002ff4:	950a      	str	r5, [sp, #40]	; 0x28
  USART_InitStruct.Parity = LL_USART_PARITY_NONE;
 8002ff6:	950b      	str	r5, [sp, #44]	; 0x2c
  USART_InitStruct.HardwareFlowControl = LL_USART_HWCONTROL_NONE;
 8002ff8:	950d      	str	r5, [sp, #52]	; 0x34
  LL_USART_Init(USART1, &USART_InitStruct);
 8002ffa:	f7fe f981 	bl	8001300 <LL_USART_Init>
  CLEAR_BIT(USARTx->CR2, (USART_CR2_LINEN | USART_CR2_CLKEN));
 8002ffe:	6923      	ldr	r3, [r4, #16]
  GPIO_InitStruct.Pin = LL_GPIO_PIN_8;
  GPIO_InitStruct.Mode = LL_GPIO_MODE_OUTPUT;
  GPIO_InitStruct.Speed = LL_GPIO_SPEED_FREQ_HIGH;
  GPIO_InitStruct.OutputType = LL_GPIO_OUTPUT_PUSHPULL;
  GPIO_InitStruct.Pull = LL_GPIO_PULL_UP;
  LL_GPIO_Init(GPIOA, &GPIO_InitStruct);
 8003000:	a903      	add	r1, sp, #12
 8003002:	f423 4390 	bic.w	r3, r3, #18432	; 0x4800
 8003006:	6123      	str	r3, [r4, #16]
  CLEAR_BIT(USARTx->CR3, (USART_CR3_SCEN | USART_CR3_IREN | USART_CR3_HDSEL));
 8003008:	6963      	ldr	r3, [r4, #20]
 800300a:	4630      	mov	r0, r6
 800300c:	f023 032a 	bic.w	r3, r3, #42	; 0x2a
 8003010:	6163      	str	r3, [r4, #20]
  SET_BIT(USARTx->CR1, USART_CR1_UE);
 8003012:	68e3      	ldr	r3, [r4, #12]
 8003014:	f443 5300 	orr.w	r3, r3, #8192	; 0x2000
 8003018:	60e3      	str	r3, [r4, #12]
  SET_BIT(USARTx->CR1, USART_CR1_RXNEIE);
 800301a:	68e3      	ldr	r3, [r4, #12]
 800301c:	f043 0320 	orr.w	r3, r3, #32
 8003020:	60e3      	str	r3, [r4, #12]
  SET_BIT(USARTx->CR3, USART_CR3_EIE);
 8003022:	6963      	ldr	r3, [r4, #20]
 8003024:	433b      	orrs	r3, r7
 8003026:	6163      	str	r3, [r4, #20]
  GPIO_InitStruct.Pin = LL_GPIO_PIN_8;
 8003028:	4b0e      	ldr	r3, [pc, #56]	; (8003064 <MX_USART1_UART_Init+0x108>)
  GPIO_InitStruct.Mode = LL_GPIO_MODE_OUTPUT;
 800302a:	9704      	str	r7, [sp, #16]
  GPIO_InitStruct.Pin = LL_GPIO_PIN_8;
 800302c:	9303      	str	r3, [sp, #12]
  GPIO_InitStruct.Speed = LL_GPIO_SPEED_FREQ_HIGH;
 800302e:	f8cd 8014 	str.w	r8, [sp, #20]
  GPIO_InitStruct.OutputType = LL_GPIO_OUTPUT_PUSHPULL;
 8003032:	9506      	str	r5, [sp, #24]
  GPIO_InitStruct.Pull = LL_GPIO_PULL_UP;
 8003034:	9707      	str	r7, [sp, #28]
  LL_GPIO_Init(GPIOA, &GPIO_InitStruct);
 8003036:	f7fd ff85 	bl	8000f44 <LL_GPIO_Init>
 800303a:	f44f 7380 	mov.w	r3, #256	; 0x100
 800303e:	6133      	str	r3, [r6, #16]

  LL_GPIO_SetOutputPin(GPIOA, LL_GPIO_PIN_8);
}
 8003040:	b00e      	add	sp, #56	; 0x38
 8003042:	e8bd 81f0 	ldmia.w	sp!, {r4, r5, r6, r7, r8, pc}
 8003046:	bf00      	nop
 8003048:	40021000 	.word	0x40021000
 800304c:	40010800 	.word	0x40010800
 8003050:	04020002 	.word	0x04020002
 8003054:	04040004 	.word	0x04040004
 8003058:	e000ed00 	.word	0xe000ed00
 800305c:	40013800 	.word	0x40013800
 8003060:	e000e100 	.word	0xe000e100
 8003064:	04010001 	.word	0x04010001

08003068 <StartDefaultTask>:
  LDRTaskInit();
  EncoderTaskInit();
}

void StartDefaultTask(void const * argument)
{
 8003068:	b508      	push	{r3, lr}

  /* USER CODE BEGIN StartDefaultTask */
  /* Infinite loop */
  for(;;)
  {
    osDelay(1);
 800306a:	2001      	movs	r0, #1
 800306c:	f7fe f9e0 	bl	8001430 <osDelay>
 8003070:	e7fb      	b.n	800306a <StartDefaultTask+0x2>
	...

08003074 <MX_FREERTOS_Init>:
void MX_FREERTOS_Init(void) {
 8003074:	b530      	push	{r4, r5, lr}
  osThreadDef(defaultTask, StartDefaultTask, osPriorityNormal, 0, 128);
 8003076:	4d0d      	ldr	r5, [pc, #52]	; (80030ac <MX_FREERTOS_Init+0x38>)
void MX_FREERTOS_Init(void) {
 8003078:	b087      	sub	sp, #28
  osThreadDef(defaultTask, StartDefaultTask, osPriorityNormal, 0, 128);
 800307a:	ac01      	add	r4, sp, #4
 800307c:	cd0f      	ldmia	r5!, {r0, r1, r2, r3}
 800307e:	c40f      	stmia	r4!, {r0, r1, r2, r3}
 8003080:	682b      	ldr	r3, [r5, #0]
  defaultTaskHandle = osThreadCreate(osThread(defaultTask), NULL);
 8003082:	2100      	movs	r1, #0
 8003084:	a801      	add	r0, sp, #4
  osThreadDef(defaultTask, StartDefaultTask, osPriorityNormal, 0, 128);
 8003086:	6023      	str	r3, [r4, #0]
  defaultTaskHandle = osThreadCreate(osThread(defaultTask), NULL);
 8003088:	f7fe f9b9 	bl	80013fe <osThreadCreate>
 800308c:	4b08      	ldr	r3, [pc, #32]	; (80030b0 <MX_FREERTOS_Init+0x3c>)
 800308e:	6018      	str	r0, [r3, #0]
  EncoderQueueInit();
 8003090:	f7ff fbea 	bl	8002868 <EncoderQueueInit>
  LDRQueueInit();
 8003094:	f7ff fd6c 	bl	8002b70 <LDRQueueInit>
  LedTaskInit();
 8003098:	f7ff feba 	bl	8002e10 <LedTaskInit>
  ESPTaskInit();
 800309c:	f7ff fc90 	bl	80029c0 <ESPTaskInit>
  LDRTaskInit();
 80030a0:	f7ff fdaa 	bl	8002bf8 <LDRTaskInit>
  EncoderTaskInit();
 80030a4:	f7ff fc42 	bl	800292c <EncoderTaskInit>
}
 80030a8:	b007      	add	sp, #28
 80030aa:	bd30      	pop	{r4, r5, pc}
 80030ac:	08003d80 	.word	0x08003d80
 80030b0:	20001980 	.word	0x20001980

080030b4 <SystemClock_Config>:

  }
}

void SystemClock_Config(void)
{
 80030b4:	b508      	push	{r3, lr}
  *         @arg @ref LL_FLASH_LATENCY_2
  * @retval None
  */
__STATIC_INLINE void LL_FLASH_SetLatency(uint32_t Latency)
{
  MODIFY_REG(FLASH->ACR, FLASH_ACR_LATENCY, Latency);
 80030b6:	4b1a      	ldr	r3, [pc, #104]	; (8003120 <SystemClock_Config+0x6c>)
 80030b8:	681a      	ldr	r2, [r3, #0]
 80030ba:	f022 0207 	bic.w	r2, r2, #7
 80030be:	601a      	str	r2, [r3, #0]
  *         @arg @ref LL_FLASH_LATENCY_1
  *         @arg @ref LL_FLASH_LATENCY_2
  */
__STATIC_INLINE uint32_t LL_FLASH_GetLatency(void)
{
  return (uint32_t)(READ_BIT(FLASH->ACR, FLASH_ACR_LATENCY));
 80030c0:	681b      	ldr	r3, [r3, #0]
  MODIFY_REG(RCC->CR, RCC_CR_HSITRIM, Value << RCC_CR_HSITRIM_Pos);
 80030c2:	4b18      	ldr	r3, [pc, #96]	; (8003124 <SystemClock_Config+0x70>)
 80030c4:	681a      	ldr	r2, [r3, #0]
 80030c6:	f022 02f8 	bic.w	r2, r2, #248	; 0xf8
 80030ca:	f042 0280 	orr.w	r2, r2, #128	; 0x80
 80030ce:	601a      	str	r2, [r3, #0]
  SET_BIT(RCC->CR, RCC_CR_HSION);
 80030d0:	681a      	ldr	r2, [r3, #0]
 80030d2:	f042 0201 	orr.w	r2, r2, #1
 80030d6:	601a      	str	r2, [r3, #0]
  return (READ_BIT(RCC->CR, RCC_CR_HSIRDY) == (RCC_CR_HSIRDY));
 80030d8:	681a      	ldr	r2, [r3, #0]
    Error_Handler();  
  }
  LL_RCC_HSI_SetCalibTrimming(16);
  LL_RCC_HSI_Enable();

  while(LL_RCC_HSI_IsReady() != 1)
 80030da:	0792      	lsls	r2, r2, #30
 80030dc:	d5fc      	bpl.n	80030d8 <SystemClock_Config+0x24>
  MODIFY_REG(RCC->CFGR, RCC_CFGR_HPRE, Prescaler);
 80030de:	685a      	ldr	r2, [r3, #4]
 80030e0:	f022 02f0 	bic.w	r2, r2, #240	; 0xf0
 80030e4:	605a      	str	r2, [r3, #4]
  MODIFY_REG(RCC->CFGR, RCC_CFGR_PPRE1, Prescaler);
 80030e6:	685a      	ldr	r2, [r3, #4]
 80030e8:	f422 62e0 	bic.w	r2, r2, #1792	; 0x700
 80030ec:	605a      	str	r2, [r3, #4]
  MODIFY_REG(RCC->CFGR, RCC_CFGR_PPRE2, Prescaler);
 80030ee:	685a      	ldr	r2, [r3, #4]
 80030f0:	f422 5260 	bic.w	r2, r2, #14336	; 0x3800
 80030f4:	605a      	str	r2, [r3, #4]
  MODIFY_REG(RCC->CFGR, RCC_CFGR_SW, Source);
 80030f6:	685a      	ldr	r2, [r3, #4]
 80030f8:	f022 0203 	bic.w	r2, r2, #3
 80030fc:	605a      	str	r2, [r3, #4]
  return (uint32_t)(READ_BIT(RCC->CFGR, RCC_CFGR_SWS));
 80030fe:	685a      	ldr	r2, [r3, #4]
  LL_RCC_SetAHBPrescaler(LL_RCC_SYSCLK_DIV_1);
  LL_RCC_SetAPB1Prescaler(LL_RCC_APB1_DIV_1);
  LL_RCC_SetAPB2Prescaler(LL_RCC_APB2_DIV_1);
  LL_RCC_SetSysClkSource(LL_RCC_SYS_CLKSOURCE_HSI);

  while(LL_RCC_GetSysClkSource() != LL_RCC_SYS_CLKSOURCE_STATUS_HSI)
 8003100:	f012 0f0c 	tst.w	r2, #12
 8003104:	d1fb      	bne.n	80030fe <SystemClock_Config+0x4a>
  {
  
  }
  LL_Init1msTick(8000000);
 8003106:	4808      	ldr	r0, [pc, #32]	; (8003128 <SystemClock_Config+0x74>)
 8003108:	f7fe f94c 	bl	80013a4 <LL_Init1msTick>
  */
__STATIC_INLINE void LL_SYSTICK_SetClkSource(uint32_t Source)
{
  if (Source == LL_SYSTICK_CLKSOURCE_HCLK)
  {
    SET_BIT(SysTick->CTRL, LL_SYSTICK_CLKSOURCE_HCLK);
 800310c:	4a07      	ldr	r2, [pc, #28]	; (800312c <SystemClock_Config+0x78>)
  LL_SYSTICK_SetClkSource(LL_SYSTICK_CLKSOURCE_HCLK);
  LL_SetSystemCoreClock(8000000);
 800310e:	4806      	ldr	r0, [pc, #24]	; (8003128 <SystemClock_Config+0x74>)
 8003110:	6813      	ldr	r3, [r2, #0]
 8003112:	f043 0304 	orr.w	r3, r3, #4
 8003116:	6013      	str	r3, [r2, #0]
}
 8003118:	e8bd 4008 	ldmia.w	sp!, {r3, lr}
  LL_SetSystemCoreClock(8000000);
 800311c:	f7fe b964 	b.w	80013e8 <LL_SetSystemCoreClock>
 8003120:	40022000 	.word	0x40022000
 8003124:	40021000 	.word	0x40021000
 8003128:	007a1200 	.word	0x007a1200
 800312c:	e000e010 	.word	0xe000e010

08003130 <main>:
{
 8003130:	b508      	push	{r3, lr}
  HAL_Init();
 8003132:	f7fd fcbf 	bl	8000ab4 <HAL_Init>
  SystemClock_Config();
 8003136:	f7ff ffbd 	bl	80030b4 <SystemClock_Config>
  MX_FREERTOS_Init();
 800313a:	f7ff ff9b 	bl	8003074 <MX_FREERTOS_Init>
  osKernelStart();
 800313e:	f7fe f959 	bl	80013f4 <osKernelStart>
 8003142:	e7fe      	b.n	8003142 <main+0x12>

08003144 <HAL_TIM_PeriodElapsedCallback>:


void HAL_TIM_PeriodElapsedCallback(TIM_HandleTypeDef *htim)
{
  if (htim->Instance == TIM1) {
 8003144:	6802      	ldr	r2, [r0, #0]
 8003146:	4b03      	ldr	r3, [pc, #12]	; (8003154 <HAL_TIM_PeriodElapsedCallback+0x10>)
 8003148:	429a      	cmp	r2, r3
 800314a:	d101      	bne.n	8003150 <HAL_TIM_PeriodElapsedCallback+0xc>
    HAL_IncTick();
 800314c:	f7fd bcc4 	b.w	8000ad8 <HAL_IncTick>
 8003150:	4770      	bx	lr
 8003152:	bf00      	nop
 8003154:	40012c00 	.word	0x40012c00

08003158 <HAL_MspInit>:
{
  /* USER CODE BEGIN MspInit 0 */

  /* USER CODE END MspInit 0 */

  __HAL_RCC_AFIO_CLK_ENABLE();
 8003158:	4b11      	ldr	r3, [pc, #68]	; (80031a0 <HAL_MspInit+0x48>)
{
 800315a:	b507      	push	{r0, r1, r2, lr}
  __HAL_RCC_AFIO_CLK_ENABLE();
 800315c:	699a      	ldr	r2, [r3, #24]
  __HAL_RCC_PWR_CLK_ENABLE();

  /* System interrupt init*/
  /* PendSV_IRQn interrupt configuration */
  HAL_NVIC_SetPriority(PendSV_IRQn, 15, 0);
 800315e:	210f      	movs	r1, #15
  __HAL_RCC_AFIO_CLK_ENABLE();
 8003160:	f042 0201 	orr.w	r2, r2, #1
 8003164:	619a      	str	r2, [r3, #24]
 8003166:	699a      	ldr	r2, [r3, #24]
  HAL_NVIC_SetPriority(PendSV_IRQn, 15, 0);
 8003168:	f06f 0001 	mvn.w	r0, #1
  __HAL_RCC_AFIO_CLK_ENABLE();
 800316c:	f002 0201 	and.w	r2, r2, #1
 8003170:	9200      	str	r2, [sp, #0]
 8003172:	9a00      	ldr	r2, [sp, #0]
  __HAL_RCC_PWR_CLK_ENABLE();
 8003174:	69da      	ldr	r2, [r3, #28]
 8003176:	f042 5280 	orr.w	r2, r2, #268435456	; 0x10000000
 800317a:	61da      	str	r2, [r3, #28]
 800317c:	69db      	ldr	r3, [r3, #28]
  HAL_NVIC_SetPriority(PendSV_IRQn, 15, 0);
 800317e:	2200      	movs	r2, #0
  __HAL_RCC_PWR_CLK_ENABLE();
 8003180:	f003 5380 	and.w	r3, r3, #268435456	; 0x10000000
 8003184:	9301      	str	r3, [sp, #4]
 8003186:	9b01      	ldr	r3, [sp, #4]
  HAL_NVIC_SetPriority(PendSV_IRQn, 15, 0);
 8003188:	f7fd fcc4 	bl	8000b14 <HAL_NVIC_SetPriority>

  /** NOJTAG: JTAG-DP Disabled and SW-DP Enabled 
  */
  __HAL_AFIO_REMAP_SWJ_NOJTAG();
 800318c:	4a05      	ldr	r2, [pc, #20]	; (80031a4 <HAL_MspInit+0x4c>)
 800318e:	6853      	ldr	r3, [r2, #4]
 8003190:	f023 63e0 	bic.w	r3, r3, #117440512	; 0x7000000
 8003194:	f043 7300 	orr.w	r3, r3, #33554432	; 0x2000000
 8003198:	6053      	str	r3, [r2, #4]

  /* USER CODE BEGIN MspInit 1 */

  /* USER CODE END MspInit 1 */
}
 800319a:	b003      	add	sp, #12
 800319c:	f85d fb04 	ldr.w	pc, [sp], #4
 80031a0:	40021000 	.word	0x40021000
 80031a4:	40010000 	.word	0x40010000

080031a8 <HAL_InitTick>:
  *         reset by HAL_Init() or at any time when clock is configured, by HAL_RCC_ClockConfig(). 
  * @param  TickPriority: Tick interrupt priority.
  * @retval HAL status
  */
HAL_StatusTypeDef HAL_InitTick(uint32_t TickPriority)
{
 80031a8:	b510      	push	{r4, lr}
  uint32_t              uwTimclock = 0;
  uint32_t              uwPrescalerValue = 0;
  uint32_t              pFLatency;
  
  /*Configure the TIM1 IRQ priority */
  HAL_NVIC_SetPriority(TIM1_UP_IRQn, TickPriority ,0); 
 80031aa:	4601      	mov	r1, r0
{
 80031ac:	b088      	sub	sp, #32
  HAL_NVIC_SetPriority(TIM1_UP_IRQn, TickPriority ,0); 
 80031ae:	2200      	movs	r2, #0
 80031b0:	2019      	movs	r0, #25
 80031b2:	f7fd fcaf 	bl	8000b14 <HAL_NVIC_SetPriority>
  
  /* Enable the TIM1 global Interrupt */
  HAL_NVIC_EnableIRQ(TIM1_UP_IRQn); 
 80031b6:	2019      	movs	r0, #25
 80031b8:	f7fd fce0 	bl	8000b7c <HAL_NVIC_EnableIRQ>
  
  /* Enable TIM1 clock */
  __HAL_RCC_TIM1_CLK_ENABLE();
 80031bc:	4b14      	ldr	r3, [pc, #80]	; (8003210 <HAL_InitTick+0x68>)
  
  /* Get clock configuration */
  HAL_RCC_GetClockConfig(&clkconfig, &pFLatency);
 80031be:	a901      	add	r1, sp, #4
  __HAL_RCC_TIM1_CLK_ENABLE();
 80031c0:	699a      	ldr	r2, [r3, #24]
  HAL_RCC_GetClockConfig(&clkconfig, &pFLatency);
 80031c2:	a803      	add	r0, sp, #12
  __HAL_RCC_TIM1_CLK_ENABLE();
 80031c4:	f442 6200 	orr.w	r2, r2, #2048	; 0x800
 80031c8:	619a      	str	r2, [r3, #24]
 80031ca:	699b      	ldr	r3, [r3, #24]
   
  /* Compute the prescaler value to have TIM1 counter clock equal to 1MHz */
  uwPrescalerValue = (uint32_t) ((uwTimclock / 1000000) - 1);
  
  /* Initialize TIM1 */
  htim1.Instance = TIM1;
 80031cc:	4c11      	ldr	r4, [pc, #68]	; (8003214 <HAL_InitTick+0x6c>)
  __HAL_RCC_TIM1_CLK_ENABLE();
 80031ce:	f403 6300 	and.w	r3, r3, #2048	; 0x800
 80031d2:	9302      	str	r3, [sp, #8]
 80031d4:	9b02      	ldr	r3, [sp, #8]
  HAL_RCC_GetClockConfig(&clkconfig, &pFLatency);
 80031d6:	f7fd fced 	bl	8000bb4 <HAL_RCC_GetClockConfig>
  uwTimclock = HAL_RCC_GetPCLK2Freq();
 80031da:	f7fd fcdb 	bl	8000b94 <HAL_RCC_GetPCLK2Freq>
  htim1.Instance = TIM1;
 80031de:	4b0e      	ldr	r3, [pc, #56]	; (8003218 <HAL_InitTick+0x70>)
 80031e0:	6023      	str	r3, [r4, #0]
  + Period = [(TIM1CLK/1000) - 1]. to have a (1/1000) s time base.
  + Prescaler = (uwTimclock/1000000 - 1) to have a 1MHz counter clock.
  + ClockDivision = 0
  + Counter direction = Up
  */
  htim1.Init.Period = (1000000 / 1000) - 1;
 80031e2:	f240 33e7 	movw	r3, #999	; 0x3e7
 80031e6:	60e3      	str	r3, [r4, #12]
  uwPrescalerValue = (uint32_t) ((uwTimclock / 1000000) - 1);
 80031e8:	4b0c      	ldr	r3, [pc, #48]	; (800321c <HAL_InitTick+0x74>)
 80031ea:	fbb0 f0f3 	udiv	r0, r0, r3
  htim1.Init.Prescaler = uwPrescalerValue;
  htim1.Init.ClockDivision = 0;
 80031ee:	2300      	movs	r3, #0
  uwPrescalerValue = (uint32_t) ((uwTimclock / 1000000) - 1);
 80031f0:	3801      	subs	r0, #1
  htim1.Init.Prescaler = uwPrescalerValue;
 80031f2:	6060      	str	r0, [r4, #4]
  htim1.Init.CounterMode = TIM_COUNTERMODE_UP;
  if(HAL_TIM_Base_Init(&htim1) == HAL_OK)
 80031f4:	4620      	mov	r0, r4
  htim1.Init.ClockDivision = 0;
 80031f6:	6123      	str	r3, [r4, #16]
  htim1.Init.CounterMode = TIM_COUNTERMODE_UP;
 80031f8:	60a3      	str	r3, [r4, #8]
  if(HAL_TIM_Base_Init(&htim1) == HAL_OK)
 80031fa:	f7fd fde3 	bl	8000dc4 <HAL_TIM_Base_Init>
 80031fe:	b920      	cbnz	r0, 800320a <HAL_InitTick+0x62>
  {
    /* Start the TIM time Base generation in interrupt mode */
    return HAL_TIM_Base_Start_IT(&htim1);
 8003200:	4620      	mov	r0, r4
 8003202:	f7fd fcf6 	bl	8000bf2 <HAL_TIM_Base_Start_IT>
  }
  
  /* Return function status */
  return HAL_ERROR;
}
 8003206:	b008      	add	sp, #32
 8003208:	bd10      	pop	{r4, pc}
  return HAL_ERROR;
 800320a:	2001      	movs	r0, #1
 800320c:	e7fb      	b.n	8003206 <HAL_InitTick+0x5e>
 800320e:	bf00      	nop
 8003210:	40021000 	.word	0x40021000
 8003214:	20001984 	.word	0x20001984
 8003218:	40012c00 	.word	0x40012c00
 800321c:	000f4240 	.word	0x000f4240

08003220 <NMI_Handler>:
 8003220:	4770      	bx	lr

08003222 <HardFault_Handler>:

/**
  * @brief This function handles Hard fault interrupt.
  */
void HardFault_Handler(void)
{
 8003222:	e7fe      	b.n	8003222 <HardFault_Handler>

08003224 <MemManage_Handler>:

/**
  * @brief This function handles Memory management fault.
  */
void MemManage_Handler(void)
{
 8003224:	e7fe      	b.n	8003224 <MemManage_Handler>

08003226 <BusFault_Handler>:

/**
  * @brief This function handles Prefetch fault, memory access fault.
  */
void BusFault_Handler(void)
{
 8003226:	e7fe      	b.n	8003226 <BusFault_Handler>

08003228 <UsageFault_Handler>:

/**
  * @brief This function handles Undefined instruction or illegal state.
  */
void UsageFault_Handler(void)
{
 8003228:	e7fe      	b.n	8003228 <UsageFault_Handler>

0800322a <DebugMon_Handler>:

/**
  * @brief This function handles Debug monitor.
  */
void DebugMon_Handler(void)
{
 800322a:	4770      	bx	lr

0800322c <TIM1_UP_IRQHandler>:
void TIM1_UP_IRQHandler(void)
{
  /* USER CODE BEGIN TIM1_UP_IRQn 0 */

  /* USER CODE END TIM1_UP_IRQn 0 */
  HAL_TIM_IRQHandler(&htim1);
 800322c:	4801      	ldr	r0, [pc, #4]	; (8003234 <TIM1_UP_IRQHandler+0x8>)
 800322e:	f7fd bcef 	b.w	8000c10 <HAL_TIM_IRQHandler>
 8003232:	bf00      	nop
 8003234:	20001984 	.word	0x20001984

08003238 <_sbrk>:
	}
	return len;
}

caddr_t _sbrk(int incr)
{
 8003238:	b508      	push	{r3, lr}
	extern char end asm("end");
	static char *heap_end;
	char *prev_heap_end;

	if (heap_end == 0)
 800323a:	4b0a      	ldr	r3, [pc, #40]	; (8003264 <_sbrk+0x2c>)
{
 800323c:	4602      	mov	r2, r0
	if (heap_end == 0)
 800323e:	6819      	ldr	r1, [r3, #0]
 8003240:	b909      	cbnz	r1, 8003246 <_sbrk+0xe>
		heap_end = &end;
 8003242:	4909      	ldr	r1, [pc, #36]	; (8003268 <_sbrk+0x30>)
 8003244:	6019      	str	r1, [r3, #0]

	prev_heap_end = heap_end;
	if (heap_end + incr > stack_ptr)
 8003246:	4669      	mov	r1, sp
	prev_heap_end = heap_end;
 8003248:	6818      	ldr	r0, [r3, #0]
	if (heap_end + incr > stack_ptr)
 800324a:	4402      	add	r2, r0
 800324c:	428a      	cmp	r2, r1
 800324e:	d906      	bls.n	800325e <_sbrk+0x26>
	{
//		write(1, "Heap and stack collision\n", 25);
//		abort();
		errno = ENOMEM;
 8003250:	f000 f858 	bl	8003304 <__errno>
 8003254:	230c      	movs	r3, #12
 8003256:	6003      	str	r3, [r0, #0]
		return (caddr_t) -1;
 8003258:	f04f 30ff 	mov.w	r0, #4294967295
 800325c:	bd08      	pop	{r3, pc}
	}

	heap_end += incr;
 800325e:	601a      	str	r2, [r3, #0]

	return (caddr_t) prev_heap_end;
}
 8003260:	bd08      	pop	{r3, pc}
 8003262:	bf00      	nop
 8003264:	2000135c 	.word	0x2000135c
 8003268:	200019c8 	.word	0x200019c8

0800326c <SystemInit>:
  */
void SystemInit (void)
{
  /* Reset the RCC clock configuration to the default reset state(for debug purpose) */
  /* Set HSION bit */
  RCC->CR |= 0x00000001U;
 800326c:	4b0f      	ldr	r3, [pc, #60]	; (80032ac <SystemInit+0x40>)
 800326e:	681a      	ldr	r2, [r3, #0]
 8003270:	f042 0201 	orr.w	r2, r2, #1
 8003274:	601a      	str	r2, [r3, #0]

  /* Reset SW, HPRE, PPRE1, PPRE2, ADCPRE and MCO bits */
#if !defined(STM32F105xC) && !defined(STM32F107xC)
  RCC->CFGR &= 0xF8FF0000U;
 8003276:	6859      	ldr	r1, [r3, #4]
 8003278:	4a0d      	ldr	r2, [pc, #52]	; (80032b0 <SystemInit+0x44>)
 800327a:	400a      	ands	r2, r1
 800327c:	605a      	str	r2, [r3, #4]
#else
  RCC->CFGR &= 0xF0FF0000U;
#endif /* STM32F105xC */   
  
  /* Reset HSEON, CSSON and PLLON bits */
  RCC->CR &= 0xFEF6FFFFU;
 800327e:	681a      	ldr	r2, [r3, #0]
 8003280:	f022 7284 	bic.w	r2, r2, #17301504	; 0x1080000
 8003284:	f422 3280 	bic.w	r2, r2, #65536	; 0x10000
 8003288:	601a      	str	r2, [r3, #0]

  /* Reset HSEBYP bit */
  RCC->CR &= 0xFFFBFFFFU;
 800328a:	681a      	ldr	r2, [r3, #0]
 800328c:	f422 2280 	bic.w	r2, r2, #262144	; 0x40000
 8003290:	601a      	str	r2, [r3, #0]

  /* Reset PLLSRC, PLLXTPRE, PLLMUL and USBPRE/OTGFSPRE bits */
  RCC->CFGR &= 0xFF80FFFFU;
 8003292:	685a      	ldr	r2, [r3, #4]
 8003294:	f422 02fe 	bic.w	r2, r2, #8323072	; 0x7f0000
 8003298:	605a      	str	r2, [r3, #4]

  /* Reset CFGR2 register */
  RCC->CFGR2 = 0x00000000U;      
#else
  /* Disable all interrupts and clear pending bits  */
  RCC->CIR = 0x009F0000U;
 800329a:	f44f 021f 	mov.w	r2, #10420224	; 0x9f0000
 800329e:	609a      	str	r2, [r3, #8]
#endif 

#ifdef VECT_TAB_SRAM
  SCB->VTOR = SRAM_BASE | VECT_TAB_OFFSET; /* Vector Table Relocation in Internal SRAM. */
#else
  SCB->VTOR = FLASH_BASE | VECT_TAB_OFFSET; /* Vector Table Relocation in Internal FLASH. */
 80032a0:	f04f 6200 	mov.w	r2, #134217728	; 0x8000000
 80032a4:	4b03      	ldr	r3, [pc, #12]	; (80032b4 <SystemInit+0x48>)
 80032a6:	609a      	str	r2, [r3, #8]
 80032a8:	4770      	bx	lr
 80032aa:	bf00      	nop
 80032ac:	40021000 	.word	0x40021000
 80032b0:	f8ff0000 	.word	0xf8ff0000
 80032b4:	e000ed00 	.word	0xe000ed00

080032b8 <Reset_Handler>:
  .weak Reset_Handler
  .type Reset_Handler, %function
Reset_Handler:

/* Copy the data segment initializers from flash to SRAM */
  movs r1, #0
 80032b8:	2100      	movs	r1, #0
  b LoopCopyDataInit
 80032ba:	e003      	b.n	80032c4 <LoopCopyDataInit>

080032bc <CopyDataInit>:

CopyDataInit:
  ldr r3, =_sidata
 80032bc:	4b0b      	ldr	r3, [pc, #44]	; (80032ec <LoopFillZerobss+0x14>)
  ldr r3, [r3, r1]
 80032be:	585b      	ldr	r3, [r3, r1]
  str r3, [r0, r1]
 80032c0:	5043      	str	r3, [r0, r1]
  adds r1, r1, #4
 80032c2:	3104      	adds	r1, #4

080032c4 <LoopCopyDataInit>:

LoopCopyDataInit:
  ldr r0, =_sdata
 80032c4:	480a      	ldr	r0, [pc, #40]	; (80032f0 <LoopFillZerobss+0x18>)
  ldr r3, =_edata
 80032c6:	4b0b      	ldr	r3, [pc, #44]	; (80032f4 <LoopFillZerobss+0x1c>)
  adds r2, r0, r1
 80032c8:	1842      	adds	r2, r0, r1
  cmp r2, r3
 80032ca:	429a      	cmp	r2, r3
  bcc CopyDataInit
 80032cc:	d3f6      	bcc.n	80032bc <CopyDataInit>
  ldr r2, =_sbss
 80032ce:	4a0a      	ldr	r2, [pc, #40]	; (80032f8 <LoopFillZerobss+0x20>)
  b LoopFillZerobss
 80032d0:	e002      	b.n	80032d8 <LoopFillZerobss>

080032d2 <FillZerobss>:
/* Zero fill the bss segment. */
FillZerobss:
  movs r3, #0
 80032d2:	2300      	movs	r3, #0
  str r3, [r2], #4
 80032d4:	f842 3b04 	str.w	r3, [r2], #4

080032d8 <LoopFillZerobss>:

LoopFillZerobss:
  ldr r3, = _ebss
 80032d8:	4b08      	ldr	r3, [pc, #32]	; (80032fc <LoopFillZerobss+0x24>)
  cmp r2, r3
 80032da:	429a      	cmp	r2, r3
  bcc FillZerobss
 80032dc:	d3f9      	bcc.n	80032d2 <FillZerobss>

/* Call the clock system intitialization function.*/
    bl  SystemInit
 80032de:	f7ff ffc5 	bl	800326c <SystemInit>
/* Call static constructors */
    bl __libc_init_array
 80032e2:	f000 f815 	bl	8003310 <__libc_init_array>
/* Call the application's entry point.*/
  bl main
 80032e6:	f7ff ff23 	bl	8003130 <main>
  bx lr
 80032ea:	4770      	bx	lr
  ldr r3, =_sidata
 80032ec:	080041ec 	.word	0x080041ec
  ldr r0, =_sdata
 80032f0:	20000000 	.word	0x20000000
  ldr r3, =_edata
 80032f4:	200001e4 	.word	0x200001e4
  ldr r2, =_sbss
 80032f8:	200001e4 	.word	0x200001e4
  ldr r3, = _ebss
 80032fc:	200019c8 	.word	0x200019c8

08003300 <CAN1_RX1_IRQHandler>:
 * @retval : None
*/
    .section .text.Default_Handler,"ax",%progbits
Default_Handler:
Infinite_Loop:
  b Infinite_Loop
 8003300:	e7fe      	b.n	8003300 <CAN1_RX1_IRQHandler>
	...

08003304 <__errno>:
 8003304:	4b01      	ldr	r3, [pc, #4]	; (800330c <__errno+0x8>)
 8003306:	6818      	ldr	r0, [r3, #0]
 8003308:	4770      	bx	lr
 800330a:	bf00      	nop
 800330c:	20000014 	.word	0x20000014

08003310 <__libc_init_array>:
 8003310:	b570      	push	{r4, r5, r6, lr}
 8003312:	2500      	movs	r5, #0
 8003314:	4e0c      	ldr	r6, [pc, #48]	; (8003348 <__libc_init_array+0x38>)
 8003316:	4c0d      	ldr	r4, [pc, #52]	; (800334c <__libc_init_array+0x3c>)
 8003318:	1ba4      	subs	r4, r4, r6
 800331a:	10a4      	asrs	r4, r4, #2
 800331c:	42a5      	cmp	r5, r4
 800331e:	d109      	bne.n	8003334 <__libc_init_array+0x24>
 8003320:	f000 fd22 	bl	8003d68 <_init>
 8003324:	2500      	movs	r5, #0
 8003326:	4e0a      	ldr	r6, [pc, #40]	; (8003350 <__libc_init_array+0x40>)
 8003328:	4c0a      	ldr	r4, [pc, #40]	; (8003354 <__libc_init_array+0x44>)
 800332a:	1ba4      	subs	r4, r4, r6
 800332c:	10a4      	asrs	r4, r4, #2
 800332e:	42a5      	cmp	r5, r4
 8003330:	d105      	bne.n	800333e <__libc_init_array+0x2e>
 8003332:	bd70      	pop	{r4, r5, r6, pc}
 8003334:	f856 3025 	ldr.w	r3, [r6, r5, lsl #2]
 8003338:	4798      	blx	r3
 800333a:	3501      	adds	r5, #1
 800333c:	e7ee      	b.n	800331c <__libc_init_array+0xc>
 800333e:	f856 3025 	ldr.w	r3, [r6, r5, lsl #2]
 8003342:	4798      	blx	r3
 8003344:	3501      	adds	r5, #1
 8003346:	e7f2      	b.n	800332e <__libc_init_array+0x1e>
 8003348:	080041e4 	.word	0x080041e4
 800334c:	080041e4 	.word	0x080041e4
 8003350:	080041e4 	.word	0x080041e4
 8003354:	080041e8 	.word	0x080041e8

08003358 <memcpy>:
 8003358:	b510      	push	{r4, lr}
 800335a:	1e43      	subs	r3, r0, #1
 800335c:	440a      	add	r2, r1
 800335e:	4291      	cmp	r1, r2
 8003360:	d100      	bne.n	8003364 <memcpy+0xc>
 8003362:	bd10      	pop	{r4, pc}
 8003364:	f811 4b01 	ldrb.w	r4, [r1], #1
 8003368:	f803 4f01 	strb.w	r4, [r3, #1]!
 800336c:	e7f7      	b.n	800335e <memcpy+0x6>

0800336e <memset>:
 800336e:	4603      	mov	r3, r0
 8003370:	4402      	add	r2, r0
 8003372:	4293      	cmp	r3, r2
 8003374:	d100      	bne.n	8003378 <memset+0xa>
 8003376:	4770      	bx	lr
 8003378:	f803 1b01 	strb.w	r1, [r3], #1
 800337c:	e7f9      	b.n	8003372 <memset+0x4>
	...

08003380 <siprintf>:
 8003380:	b40e      	push	{r1, r2, r3}
 8003382:	f44f 7102 	mov.w	r1, #520	; 0x208
 8003386:	b500      	push	{lr}
 8003388:	b09c      	sub	sp, #112	; 0x70
 800338a:	f8ad 1014 	strh.w	r1, [sp, #20]
 800338e:	f06f 4100 	mvn.w	r1, #2147483648	; 0x80000000
 8003392:	9104      	str	r1, [sp, #16]
 8003394:	9107      	str	r1, [sp, #28]
 8003396:	f64f 71ff 	movw	r1, #65535	; 0xffff
 800339a:	ab1d      	add	r3, sp, #116	; 0x74
 800339c:	9002      	str	r0, [sp, #8]
 800339e:	9006      	str	r0, [sp, #24]
 80033a0:	4808      	ldr	r0, [pc, #32]	; (80033c4 <siprintf+0x44>)
 80033a2:	f853 2b04 	ldr.w	r2, [r3], #4
 80033a6:	f8ad 1016 	strh.w	r1, [sp, #22]
 80033aa:	6800      	ldr	r0, [r0, #0]
 80033ac:	a902      	add	r1, sp, #8
 80033ae:	9301      	str	r3, [sp, #4]
 80033b0:	f000 f92c 	bl	800360c <_svfiprintf_r>
 80033b4:	2200      	movs	r2, #0
 80033b6:	9b02      	ldr	r3, [sp, #8]
 80033b8:	701a      	strb	r2, [r3, #0]
 80033ba:	b01c      	add	sp, #112	; 0x70
 80033bc:	f85d eb04 	ldr.w	lr, [sp], #4
 80033c0:	b003      	add	sp, #12
 80033c2:	4770      	bx	lr
 80033c4:	20000014 	.word	0x20000014

080033c8 <strstr>:
 80033c8:	b5f0      	push	{r4, r5, r6, r7, lr}
 80033ca:	7803      	ldrb	r3, [r0, #0]
 80033cc:	b133      	cbz	r3, 80033dc <strstr+0x14>
 80033ce:	4603      	mov	r3, r0
 80033d0:	4618      	mov	r0, r3
 80033d2:	1c5e      	adds	r6, r3, #1
 80033d4:	781b      	ldrb	r3, [r3, #0]
 80033d6:	b933      	cbnz	r3, 80033e6 <strstr+0x1e>
 80033d8:	4618      	mov	r0, r3
 80033da:	bdf0      	pop	{r4, r5, r6, r7, pc}
 80033dc:	780b      	ldrb	r3, [r1, #0]
 80033de:	2b00      	cmp	r3, #0
 80033e0:	bf18      	it	ne
 80033e2:	2000      	movne	r0, #0
 80033e4:	bdf0      	pop	{r4, r5, r6, r7, pc}
 80033e6:	1e4d      	subs	r5, r1, #1
 80033e8:	1e44      	subs	r4, r0, #1
 80033ea:	f815 2f01 	ldrb.w	r2, [r5, #1]!
 80033ee:	2a00      	cmp	r2, #0
 80033f0:	d0f3      	beq.n	80033da <strstr+0x12>
 80033f2:	f814 7f01 	ldrb.w	r7, [r4, #1]!
 80033f6:	4633      	mov	r3, r6
 80033f8:	4297      	cmp	r7, r2
 80033fa:	d0f6      	beq.n	80033ea <strstr+0x22>
 80033fc:	e7e8      	b.n	80033d0 <strstr+0x8>

080033fe <_strtol_l.isra.0>:
 80033fe:	e92d 4ff8 	stmdb	sp!, {r3, r4, r5, r6, r7, r8, r9, sl, fp, lr}
 8003402:	4680      	mov	r8, r0
 8003404:	4689      	mov	r9, r1
 8003406:	4692      	mov	sl, r2
 8003408:	461f      	mov	r7, r3
 800340a:	468b      	mov	fp, r1
 800340c:	465d      	mov	r5, fp
 800340e:	980a      	ldr	r0, [sp, #40]	; 0x28
 8003410:	f815 4b01 	ldrb.w	r4, [r5], #1
 8003414:	f000 f88a 	bl	800352c <__locale_ctype_ptr_l>
 8003418:	4420      	add	r0, r4
 800341a:	7846      	ldrb	r6, [r0, #1]
 800341c:	f016 0608 	ands.w	r6, r6, #8
 8003420:	d10b      	bne.n	800343a <_strtol_l.isra.0+0x3c>
 8003422:	2c2d      	cmp	r4, #45	; 0x2d
 8003424:	d10b      	bne.n	800343e <_strtol_l.isra.0+0x40>
 8003426:	2601      	movs	r6, #1
 8003428:	782c      	ldrb	r4, [r5, #0]
 800342a:	f10b 0502 	add.w	r5, fp, #2
 800342e:	b167      	cbz	r7, 800344a <_strtol_l.isra.0+0x4c>
 8003430:	2f10      	cmp	r7, #16
 8003432:	d114      	bne.n	800345e <_strtol_l.isra.0+0x60>
 8003434:	2c30      	cmp	r4, #48	; 0x30
 8003436:	d00a      	beq.n	800344e <_strtol_l.isra.0+0x50>
 8003438:	e011      	b.n	800345e <_strtol_l.isra.0+0x60>
 800343a:	46ab      	mov	fp, r5
 800343c:	e7e6      	b.n	800340c <_strtol_l.isra.0+0xe>
 800343e:	2c2b      	cmp	r4, #43	; 0x2b
 8003440:	bf04      	itt	eq
 8003442:	782c      	ldrbeq	r4, [r5, #0]
 8003444:	f10b 0502 	addeq.w	r5, fp, #2
 8003448:	e7f1      	b.n	800342e <_strtol_l.isra.0+0x30>
 800344a:	2c30      	cmp	r4, #48	; 0x30
 800344c:	d127      	bne.n	800349e <_strtol_l.isra.0+0xa0>
 800344e:	782b      	ldrb	r3, [r5, #0]
 8003450:	f003 03df 	and.w	r3, r3, #223	; 0xdf
 8003454:	2b58      	cmp	r3, #88	; 0x58
 8003456:	d14b      	bne.n	80034f0 <_strtol_l.isra.0+0xf2>
 8003458:	2710      	movs	r7, #16
 800345a:	786c      	ldrb	r4, [r5, #1]
 800345c:	3502      	adds	r5, #2
 800345e:	2e00      	cmp	r6, #0
 8003460:	bf0c      	ite	eq
 8003462:	f06f 4100 	mvneq.w	r1, #2147483648	; 0x80000000
 8003466:	f04f 4100 	movne.w	r1, #2147483648	; 0x80000000
 800346a:	2200      	movs	r2, #0
 800346c:	fbb1 fef7 	udiv	lr, r1, r7
 8003470:	4610      	mov	r0, r2
 8003472:	fb07 1c1e 	mls	ip, r7, lr, r1
 8003476:	f1a4 0330 	sub.w	r3, r4, #48	; 0x30
 800347a:	2b09      	cmp	r3, #9
 800347c:	d811      	bhi.n	80034a2 <_strtol_l.isra.0+0xa4>
 800347e:	461c      	mov	r4, r3
 8003480:	42a7      	cmp	r7, r4
 8003482:	dd1d      	ble.n	80034c0 <_strtol_l.isra.0+0xc2>
 8003484:	1c53      	adds	r3, r2, #1
 8003486:	d007      	beq.n	8003498 <_strtol_l.isra.0+0x9a>
 8003488:	4586      	cmp	lr, r0
 800348a:	d316      	bcc.n	80034ba <_strtol_l.isra.0+0xbc>
 800348c:	d101      	bne.n	8003492 <_strtol_l.isra.0+0x94>
 800348e:	45a4      	cmp	ip, r4
 8003490:	db13      	blt.n	80034ba <_strtol_l.isra.0+0xbc>
 8003492:	2201      	movs	r2, #1
 8003494:	fb00 4007 	mla	r0, r0, r7, r4
 8003498:	f815 4b01 	ldrb.w	r4, [r5], #1
 800349c:	e7eb      	b.n	8003476 <_strtol_l.isra.0+0x78>
 800349e:	270a      	movs	r7, #10
 80034a0:	e7dd      	b.n	800345e <_strtol_l.isra.0+0x60>
 80034a2:	f1a4 0341 	sub.w	r3, r4, #65	; 0x41
 80034a6:	2b19      	cmp	r3, #25
 80034a8:	d801      	bhi.n	80034ae <_strtol_l.isra.0+0xb0>
 80034aa:	3c37      	subs	r4, #55	; 0x37
 80034ac:	e7e8      	b.n	8003480 <_strtol_l.isra.0+0x82>
 80034ae:	f1a4 0361 	sub.w	r3, r4, #97	; 0x61
 80034b2:	2b19      	cmp	r3, #25
 80034b4:	d804      	bhi.n	80034c0 <_strtol_l.isra.0+0xc2>
 80034b6:	3c57      	subs	r4, #87	; 0x57
 80034b8:	e7e2      	b.n	8003480 <_strtol_l.isra.0+0x82>
 80034ba:	f04f 32ff 	mov.w	r2, #4294967295
 80034be:	e7eb      	b.n	8003498 <_strtol_l.isra.0+0x9a>
 80034c0:	1c53      	adds	r3, r2, #1
 80034c2:	d108      	bne.n	80034d6 <_strtol_l.isra.0+0xd8>
 80034c4:	2322      	movs	r3, #34	; 0x22
 80034c6:	4608      	mov	r0, r1
 80034c8:	f8c8 3000 	str.w	r3, [r8]
 80034cc:	f1ba 0f00 	cmp.w	sl, #0
 80034d0:	d107      	bne.n	80034e2 <_strtol_l.isra.0+0xe4>
 80034d2:	e8bd 8ff8 	ldmia.w	sp!, {r3, r4, r5, r6, r7, r8, r9, sl, fp, pc}
 80034d6:	b106      	cbz	r6, 80034da <_strtol_l.isra.0+0xdc>
 80034d8:	4240      	negs	r0, r0
 80034da:	f1ba 0f00 	cmp.w	sl, #0
 80034de:	d00c      	beq.n	80034fa <_strtol_l.isra.0+0xfc>
 80034e0:	b122      	cbz	r2, 80034ec <_strtol_l.isra.0+0xee>
 80034e2:	3d01      	subs	r5, #1
 80034e4:	f8ca 5000 	str.w	r5, [sl]
 80034e8:	e8bd 8ff8 	ldmia.w	sp!, {r3, r4, r5, r6, r7, r8, r9, sl, fp, pc}
 80034ec:	464d      	mov	r5, r9
 80034ee:	e7f9      	b.n	80034e4 <_strtol_l.isra.0+0xe6>
 80034f0:	2430      	movs	r4, #48	; 0x30
 80034f2:	2f00      	cmp	r7, #0
 80034f4:	d1b3      	bne.n	800345e <_strtol_l.isra.0+0x60>
 80034f6:	2708      	movs	r7, #8
 80034f8:	e7b1      	b.n	800345e <_strtol_l.isra.0+0x60>
 80034fa:	e8bd 8ff8 	ldmia.w	sp!, {r3, r4, r5, r6, r7, r8, r9, sl, fp, pc}
	...

08003500 <strtol>:
 8003500:	4b08      	ldr	r3, [pc, #32]	; (8003524 <strtol+0x24>)
 8003502:	b537      	push	{r0, r1, r2, r4, r5, lr}
 8003504:	681c      	ldr	r4, [r3, #0]
 8003506:	4d08      	ldr	r5, [pc, #32]	; (8003528 <strtol+0x28>)
 8003508:	6a23      	ldr	r3, [r4, #32]
 800350a:	2b00      	cmp	r3, #0
 800350c:	bf08      	it	eq
 800350e:	462b      	moveq	r3, r5
 8003510:	9300      	str	r3, [sp, #0]
 8003512:	4613      	mov	r3, r2
 8003514:	460a      	mov	r2, r1
 8003516:	4601      	mov	r1, r0
 8003518:	4620      	mov	r0, r4
 800351a:	f7ff ff70 	bl	80033fe <_strtol_l.isra.0>
 800351e:	b003      	add	sp, #12
 8003520:	bd30      	pop	{r4, r5, pc}
 8003522:	bf00      	nop
 8003524:	20000014 	.word	0x20000014
 8003528:	20000078 	.word	0x20000078

0800352c <__locale_ctype_ptr_l>:
 800352c:	f8d0 00ec 	ldr.w	r0, [r0, #236]	; 0xec
 8003530:	4770      	bx	lr

08003532 <__ascii_mbtowc>:
 8003532:	b082      	sub	sp, #8
 8003534:	b901      	cbnz	r1, 8003538 <__ascii_mbtowc+0x6>
 8003536:	a901      	add	r1, sp, #4
 8003538:	b142      	cbz	r2, 800354c <__ascii_mbtowc+0x1a>
 800353a:	b14b      	cbz	r3, 8003550 <__ascii_mbtowc+0x1e>
 800353c:	7813      	ldrb	r3, [r2, #0]
 800353e:	600b      	str	r3, [r1, #0]
 8003540:	7812      	ldrb	r2, [r2, #0]
 8003542:	1c10      	adds	r0, r2, #0
 8003544:	bf18      	it	ne
 8003546:	2001      	movne	r0, #1
 8003548:	b002      	add	sp, #8
 800354a:	4770      	bx	lr
 800354c:	4610      	mov	r0, r2
 800354e:	e7fb      	b.n	8003548 <__ascii_mbtowc+0x16>
 8003550:	f06f 0001 	mvn.w	r0, #1
 8003554:	e7f8      	b.n	8003548 <__ascii_mbtowc+0x16>

08003556 <__ssputs_r>:
 8003556:	e92d 47f0 	stmdb	sp!, {r4, r5, r6, r7, r8, r9, sl, lr}
 800355a:	688e      	ldr	r6, [r1, #8]
 800355c:	4682      	mov	sl, r0
 800355e:	429e      	cmp	r6, r3
 8003560:	460c      	mov	r4, r1
 8003562:	4691      	mov	r9, r2
 8003564:	4698      	mov	r8, r3
 8003566:	d835      	bhi.n	80035d4 <__ssputs_r+0x7e>
 8003568:	898a      	ldrh	r2, [r1, #12]
 800356a:	f412 6f90 	tst.w	r2, #1152	; 0x480
 800356e:	d031      	beq.n	80035d4 <__ssputs_r+0x7e>
 8003570:	2302      	movs	r3, #2
 8003572:	6825      	ldr	r5, [r4, #0]
 8003574:	6909      	ldr	r1, [r1, #16]
 8003576:	1a6f      	subs	r7, r5, r1
 8003578:	6965      	ldr	r5, [r4, #20]
 800357a:	eb05 0545 	add.w	r5, r5, r5, lsl #1
 800357e:	fb95 f5f3 	sdiv	r5, r5, r3
 8003582:	f108 0301 	add.w	r3, r8, #1
 8003586:	443b      	add	r3, r7
 8003588:	429d      	cmp	r5, r3
 800358a:	bf38      	it	cc
 800358c:	461d      	movcc	r5, r3
 800358e:	0553      	lsls	r3, r2, #21
 8003590:	d531      	bpl.n	80035f6 <__ssputs_r+0xa0>
 8003592:	4629      	mov	r1, r5
 8003594:	f000 fb48 	bl	8003c28 <_malloc_r>
 8003598:	4606      	mov	r6, r0
 800359a:	b950      	cbnz	r0, 80035b2 <__ssputs_r+0x5c>
 800359c:	230c      	movs	r3, #12
 800359e:	f8ca 3000 	str.w	r3, [sl]
 80035a2:	89a3      	ldrh	r3, [r4, #12]
 80035a4:	f04f 30ff 	mov.w	r0, #4294967295
 80035a8:	f043 0340 	orr.w	r3, r3, #64	; 0x40
 80035ac:	81a3      	strh	r3, [r4, #12]
 80035ae:	e8bd 87f0 	ldmia.w	sp!, {r4, r5, r6, r7, r8, r9, sl, pc}
 80035b2:	463a      	mov	r2, r7
 80035b4:	6921      	ldr	r1, [r4, #16]
 80035b6:	f7ff fecf 	bl	8003358 <memcpy>
 80035ba:	89a3      	ldrh	r3, [r4, #12]
 80035bc:	f423 6390 	bic.w	r3, r3, #1152	; 0x480
 80035c0:	f043 0380 	orr.w	r3, r3, #128	; 0x80
 80035c4:	81a3      	strh	r3, [r4, #12]
 80035c6:	6126      	str	r6, [r4, #16]
 80035c8:	443e      	add	r6, r7
 80035ca:	6026      	str	r6, [r4, #0]
 80035cc:	4646      	mov	r6, r8
 80035ce:	6165      	str	r5, [r4, #20]
 80035d0:	1bed      	subs	r5, r5, r7
 80035d2:	60a5      	str	r5, [r4, #8]
 80035d4:	4546      	cmp	r6, r8
 80035d6:	bf28      	it	cs
 80035d8:	4646      	movcs	r6, r8
 80035da:	4649      	mov	r1, r9
 80035dc:	4632      	mov	r2, r6
 80035de:	6820      	ldr	r0, [r4, #0]
 80035e0:	f000 fabb 	bl	8003b5a <memmove>
 80035e4:	68a3      	ldr	r3, [r4, #8]
 80035e6:	2000      	movs	r0, #0
 80035e8:	1b9b      	subs	r3, r3, r6
 80035ea:	60a3      	str	r3, [r4, #8]
 80035ec:	6823      	ldr	r3, [r4, #0]
 80035ee:	441e      	add	r6, r3
 80035f0:	6026      	str	r6, [r4, #0]
 80035f2:	e8bd 87f0 	ldmia.w	sp!, {r4, r5, r6, r7, r8, r9, sl, pc}
 80035f6:	462a      	mov	r2, r5
 80035f8:	f000 fb74 	bl	8003ce4 <_realloc_r>
 80035fc:	4606      	mov	r6, r0
 80035fe:	2800      	cmp	r0, #0
 8003600:	d1e1      	bne.n	80035c6 <__ssputs_r+0x70>
 8003602:	6921      	ldr	r1, [r4, #16]
 8003604:	4650      	mov	r0, sl
 8003606:	f000 fac3 	bl	8003b90 <_free_r>
 800360a:	e7c7      	b.n	800359c <__ssputs_r+0x46>

0800360c <_svfiprintf_r>:
 800360c:	e92d 4ff0 	stmdb	sp!, {r4, r5, r6, r7, r8, r9, sl, fp, lr}
 8003610:	b09d      	sub	sp, #116	; 0x74
 8003612:	9303      	str	r3, [sp, #12]
 8003614:	898b      	ldrh	r3, [r1, #12]
 8003616:	4680      	mov	r8, r0
 8003618:	061c      	lsls	r4, r3, #24
 800361a:	460d      	mov	r5, r1
 800361c:	4616      	mov	r6, r2
 800361e:	d50f      	bpl.n	8003640 <_svfiprintf_r+0x34>
 8003620:	690b      	ldr	r3, [r1, #16]
 8003622:	b96b      	cbnz	r3, 8003640 <_svfiprintf_r+0x34>
 8003624:	2140      	movs	r1, #64	; 0x40
 8003626:	f000 faff 	bl	8003c28 <_malloc_r>
 800362a:	6028      	str	r0, [r5, #0]
 800362c:	6128      	str	r0, [r5, #16]
 800362e:	b928      	cbnz	r0, 800363c <_svfiprintf_r+0x30>
 8003630:	230c      	movs	r3, #12
 8003632:	f8c8 3000 	str.w	r3, [r8]
 8003636:	f04f 30ff 	mov.w	r0, #4294967295
 800363a:	e0c4      	b.n	80037c6 <_svfiprintf_r+0x1ba>
 800363c:	2340      	movs	r3, #64	; 0x40
 800363e:	616b      	str	r3, [r5, #20]
 8003640:	2300      	movs	r3, #0
 8003642:	9309      	str	r3, [sp, #36]	; 0x24
 8003644:	2320      	movs	r3, #32
 8003646:	f88d 3029 	strb.w	r3, [sp, #41]	; 0x29
 800364a:	2330      	movs	r3, #48	; 0x30
 800364c:	f04f 0b01 	mov.w	fp, #1
 8003650:	f88d 302a 	strb.w	r3, [sp, #42]	; 0x2a
 8003654:	4637      	mov	r7, r6
 8003656:	463c      	mov	r4, r7
 8003658:	f814 3b01 	ldrb.w	r3, [r4], #1
 800365c:	2b00      	cmp	r3, #0
 800365e:	d13c      	bne.n	80036da <_svfiprintf_r+0xce>
 8003660:	ebb7 0a06 	subs.w	sl, r7, r6
 8003664:	d00b      	beq.n	800367e <_svfiprintf_r+0x72>
 8003666:	4653      	mov	r3, sl
 8003668:	4632      	mov	r2, r6
 800366a:	4629      	mov	r1, r5
 800366c:	4640      	mov	r0, r8
 800366e:	f7ff ff72 	bl	8003556 <__ssputs_r>
 8003672:	3001      	adds	r0, #1
 8003674:	f000 80a2 	beq.w	80037bc <_svfiprintf_r+0x1b0>
 8003678:	9b09      	ldr	r3, [sp, #36]	; 0x24
 800367a:	4453      	add	r3, sl
 800367c:	9309      	str	r3, [sp, #36]	; 0x24
 800367e:	783b      	ldrb	r3, [r7, #0]
 8003680:	2b00      	cmp	r3, #0
 8003682:	f000 809b 	beq.w	80037bc <_svfiprintf_r+0x1b0>
 8003686:	2300      	movs	r3, #0
 8003688:	f04f 32ff 	mov.w	r2, #4294967295
 800368c:	9304      	str	r3, [sp, #16]
 800368e:	9307      	str	r3, [sp, #28]
 8003690:	9205      	str	r2, [sp, #20]
 8003692:	9306      	str	r3, [sp, #24]
 8003694:	f88d 3053 	strb.w	r3, [sp, #83]	; 0x53
 8003698:	931a      	str	r3, [sp, #104]	; 0x68
 800369a:	2205      	movs	r2, #5
 800369c:	7821      	ldrb	r1, [r4, #0]
 800369e:	4850      	ldr	r0, [pc, #320]	; (80037e0 <_svfiprintf_r+0x1d4>)
 80036a0:	f000 fa4d 	bl	8003b3e <memchr>
 80036a4:	1c67      	adds	r7, r4, #1
 80036a6:	9b04      	ldr	r3, [sp, #16]
 80036a8:	b9d8      	cbnz	r0, 80036e2 <_svfiprintf_r+0xd6>
 80036aa:	06d9      	lsls	r1, r3, #27
 80036ac:	bf44      	itt	mi
 80036ae:	2220      	movmi	r2, #32
 80036b0:	f88d 2053 	strbmi.w	r2, [sp, #83]	; 0x53
 80036b4:	071a      	lsls	r2, r3, #28
 80036b6:	bf44      	itt	mi
 80036b8:	222b      	movmi	r2, #43	; 0x2b
 80036ba:	f88d 2053 	strbmi.w	r2, [sp, #83]	; 0x53
 80036be:	7822      	ldrb	r2, [r4, #0]
 80036c0:	2a2a      	cmp	r2, #42	; 0x2a
 80036c2:	d016      	beq.n	80036f2 <_svfiprintf_r+0xe6>
 80036c4:	2100      	movs	r1, #0
 80036c6:	200a      	movs	r0, #10
 80036c8:	9a07      	ldr	r2, [sp, #28]
 80036ca:	4627      	mov	r7, r4
 80036cc:	783b      	ldrb	r3, [r7, #0]
 80036ce:	3401      	adds	r4, #1
 80036d0:	3b30      	subs	r3, #48	; 0x30
 80036d2:	2b09      	cmp	r3, #9
 80036d4:	d950      	bls.n	8003778 <_svfiprintf_r+0x16c>
 80036d6:	b1c9      	cbz	r1, 800370c <_svfiprintf_r+0x100>
 80036d8:	e011      	b.n	80036fe <_svfiprintf_r+0xf2>
 80036da:	2b25      	cmp	r3, #37	; 0x25
 80036dc:	d0c0      	beq.n	8003660 <_svfiprintf_r+0x54>
 80036de:	4627      	mov	r7, r4
 80036e0:	e7b9      	b.n	8003656 <_svfiprintf_r+0x4a>
 80036e2:	4a3f      	ldr	r2, [pc, #252]	; (80037e0 <_svfiprintf_r+0x1d4>)
 80036e4:	463c      	mov	r4, r7
 80036e6:	1a80      	subs	r0, r0, r2
 80036e8:	fa0b f000 	lsl.w	r0, fp, r0
 80036ec:	4318      	orrs	r0, r3
 80036ee:	9004      	str	r0, [sp, #16]
 80036f0:	e7d3      	b.n	800369a <_svfiprintf_r+0x8e>
 80036f2:	9a03      	ldr	r2, [sp, #12]
 80036f4:	1d11      	adds	r1, r2, #4
 80036f6:	6812      	ldr	r2, [r2, #0]
 80036f8:	9103      	str	r1, [sp, #12]
 80036fa:	2a00      	cmp	r2, #0
 80036fc:	db01      	blt.n	8003702 <_svfiprintf_r+0xf6>
 80036fe:	9207      	str	r2, [sp, #28]
 8003700:	e004      	b.n	800370c <_svfiprintf_r+0x100>
 8003702:	4252      	negs	r2, r2
 8003704:	f043 0302 	orr.w	r3, r3, #2
 8003708:	9207      	str	r2, [sp, #28]
 800370a:	9304      	str	r3, [sp, #16]
 800370c:	783b      	ldrb	r3, [r7, #0]
 800370e:	2b2e      	cmp	r3, #46	; 0x2e
 8003710:	d10d      	bne.n	800372e <_svfiprintf_r+0x122>
 8003712:	787b      	ldrb	r3, [r7, #1]
 8003714:	1c79      	adds	r1, r7, #1
 8003716:	2b2a      	cmp	r3, #42	; 0x2a
 8003718:	d132      	bne.n	8003780 <_svfiprintf_r+0x174>
 800371a:	9b03      	ldr	r3, [sp, #12]
 800371c:	3702      	adds	r7, #2
 800371e:	1d1a      	adds	r2, r3, #4
 8003720:	681b      	ldr	r3, [r3, #0]
 8003722:	9203      	str	r2, [sp, #12]
 8003724:	2b00      	cmp	r3, #0
 8003726:	bfb8      	it	lt
 8003728:	f04f 33ff 	movlt.w	r3, #4294967295
 800372c:	9305      	str	r3, [sp, #20]
 800372e:	4c2d      	ldr	r4, [pc, #180]	; (80037e4 <_svfiprintf_r+0x1d8>)
 8003730:	2203      	movs	r2, #3
 8003732:	7839      	ldrb	r1, [r7, #0]
 8003734:	4620      	mov	r0, r4
 8003736:	f000 fa02 	bl	8003b3e <memchr>
 800373a:	b138      	cbz	r0, 800374c <_svfiprintf_r+0x140>
 800373c:	2340      	movs	r3, #64	; 0x40
 800373e:	1b00      	subs	r0, r0, r4
 8003740:	fa03 f000 	lsl.w	r0, r3, r0
 8003744:	9b04      	ldr	r3, [sp, #16]
 8003746:	3701      	adds	r7, #1
 8003748:	4303      	orrs	r3, r0
 800374a:	9304      	str	r3, [sp, #16]
 800374c:	7839      	ldrb	r1, [r7, #0]
 800374e:	2206      	movs	r2, #6
 8003750:	4825      	ldr	r0, [pc, #148]	; (80037e8 <_svfiprintf_r+0x1dc>)
 8003752:	1c7e      	adds	r6, r7, #1
 8003754:	f88d 1028 	strb.w	r1, [sp, #40]	; 0x28
 8003758:	f000 f9f1 	bl	8003b3e <memchr>
 800375c:	2800      	cmp	r0, #0
 800375e:	d035      	beq.n	80037cc <_svfiprintf_r+0x1c0>
 8003760:	4b22      	ldr	r3, [pc, #136]	; (80037ec <_svfiprintf_r+0x1e0>)
 8003762:	b9fb      	cbnz	r3, 80037a4 <_svfiprintf_r+0x198>
 8003764:	9b03      	ldr	r3, [sp, #12]
 8003766:	3307      	adds	r3, #7
 8003768:	f023 0307 	bic.w	r3, r3, #7
 800376c:	3308      	adds	r3, #8
 800376e:	9303      	str	r3, [sp, #12]
 8003770:	9b09      	ldr	r3, [sp, #36]	; 0x24
 8003772:	444b      	add	r3, r9
 8003774:	9309      	str	r3, [sp, #36]	; 0x24
 8003776:	e76d      	b.n	8003654 <_svfiprintf_r+0x48>
 8003778:	fb00 3202 	mla	r2, r0, r2, r3
 800377c:	2101      	movs	r1, #1
 800377e:	e7a4      	b.n	80036ca <_svfiprintf_r+0xbe>
 8003780:	2300      	movs	r3, #0
 8003782:	240a      	movs	r4, #10
 8003784:	4618      	mov	r0, r3
 8003786:	9305      	str	r3, [sp, #20]
 8003788:	460f      	mov	r7, r1
 800378a:	783a      	ldrb	r2, [r7, #0]
 800378c:	3101      	adds	r1, #1
 800378e:	3a30      	subs	r2, #48	; 0x30
 8003790:	2a09      	cmp	r2, #9
 8003792:	d903      	bls.n	800379c <_svfiprintf_r+0x190>
 8003794:	2b00      	cmp	r3, #0
 8003796:	d0ca      	beq.n	800372e <_svfiprintf_r+0x122>
 8003798:	9005      	str	r0, [sp, #20]
 800379a:	e7c8      	b.n	800372e <_svfiprintf_r+0x122>
 800379c:	fb04 2000 	mla	r0, r4, r0, r2
 80037a0:	2301      	movs	r3, #1
 80037a2:	e7f1      	b.n	8003788 <_svfiprintf_r+0x17c>
 80037a4:	ab03      	add	r3, sp, #12
 80037a6:	9300      	str	r3, [sp, #0]
 80037a8:	462a      	mov	r2, r5
 80037aa:	4b11      	ldr	r3, [pc, #68]	; (80037f0 <_svfiprintf_r+0x1e4>)
 80037ac:	a904      	add	r1, sp, #16
 80037ae:	4640      	mov	r0, r8
 80037b0:	f3af 8000 	nop.w
 80037b4:	f1b0 3fff 	cmp.w	r0, #4294967295
 80037b8:	4681      	mov	r9, r0
 80037ba:	d1d9      	bne.n	8003770 <_svfiprintf_r+0x164>
 80037bc:	89ab      	ldrh	r3, [r5, #12]
 80037be:	065b      	lsls	r3, r3, #25
 80037c0:	f53f af39 	bmi.w	8003636 <_svfiprintf_r+0x2a>
 80037c4:	9809      	ldr	r0, [sp, #36]	; 0x24
 80037c6:	b01d      	add	sp, #116	; 0x74
 80037c8:	e8bd 8ff0 	ldmia.w	sp!, {r4, r5, r6, r7, r8, r9, sl, fp, pc}
 80037cc:	ab03      	add	r3, sp, #12
 80037ce:	9300      	str	r3, [sp, #0]
 80037d0:	462a      	mov	r2, r5
 80037d2:	4b07      	ldr	r3, [pc, #28]	; (80037f0 <_svfiprintf_r+0x1e4>)
 80037d4:	a904      	add	r1, sp, #16
 80037d6:	4640      	mov	r0, r8
 80037d8:	f000 f884 	bl	80038e4 <_printf_i>
 80037dc:	e7ea      	b.n	80037b4 <_svfiprintf_r+0x1a8>
 80037de:	bf00      	nop
 80037e0:	080040a8 	.word	0x080040a8
 80037e4:	080040ae 	.word	0x080040ae
 80037e8:	080040b2 	.word	0x080040b2
 80037ec:	00000000 	.word	0x00000000
 80037f0:	08003557 	.word	0x08003557

080037f4 <_printf_common>:
 80037f4:	e92d 47f0 	stmdb	sp!, {r4, r5, r6, r7, r8, r9, sl, lr}
 80037f8:	4691      	mov	r9, r2
 80037fa:	461f      	mov	r7, r3
 80037fc:	688a      	ldr	r2, [r1, #8]
 80037fe:	690b      	ldr	r3, [r1, #16]
 8003800:	4606      	mov	r6, r0
 8003802:	4293      	cmp	r3, r2
 8003804:	bfb8      	it	lt
 8003806:	4613      	movlt	r3, r2
 8003808:	f8c9 3000 	str.w	r3, [r9]
 800380c:	f891 2043 	ldrb.w	r2, [r1, #67]	; 0x43
 8003810:	460c      	mov	r4, r1
 8003812:	f8dd 8020 	ldr.w	r8, [sp, #32]
 8003816:	b112      	cbz	r2, 800381e <_printf_common+0x2a>
 8003818:	3301      	adds	r3, #1
 800381a:	f8c9 3000 	str.w	r3, [r9]
 800381e:	6823      	ldr	r3, [r4, #0]
 8003820:	0699      	lsls	r1, r3, #26
 8003822:	bf42      	ittt	mi
 8003824:	f8d9 3000 	ldrmi.w	r3, [r9]
 8003828:	3302      	addmi	r3, #2
 800382a:	f8c9 3000 	strmi.w	r3, [r9]
 800382e:	6825      	ldr	r5, [r4, #0]
 8003830:	f015 0506 	ands.w	r5, r5, #6
 8003834:	d107      	bne.n	8003846 <_printf_common+0x52>
 8003836:	f104 0a19 	add.w	sl, r4, #25
 800383a:	68e3      	ldr	r3, [r4, #12]
 800383c:	f8d9 2000 	ldr.w	r2, [r9]
 8003840:	1a9b      	subs	r3, r3, r2
 8003842:	429d      	cmp	r5, r3
 8003844:	db2a      	blt.n	800389c <_printf_common+0xa8>
 8003846:	f894 3043 	ldrb.w	r3, [r4, #67]	; 0x43
 800384a:	6822      	ldr	r2, [r4, #0]
 800384c:	3300      	adds	r3, #0
 800384e:	bf18      	it	ne
 8003850:	2301      	movne	r3, #1
 8003852:	0692      	lsls	r2, r2, #26
 8003854:	d42f      	bmi.n	80038b6 <_printf_common+0xc2>
 8003856:	f104 0243 	add.w	r2, r4, #67	; 0x43
 800385a:	4639      	mov	r1, r7
 800385c:	4630      	mov	r0, r6
 800385e:	47c0      	blx	r8
 8003860:	3001      	adds	r0, #1
 8003862:	d022      	beq.n	80038aa <_printf_common+0xb6>
 8003864:	6823      	ldr	r3, [r4, #0]
 8003866:	68e5      	ldr	r5, [r4, #12]
 8003868:	f003 0306 	and.w	r3, r3, #6
 800386c:	2b04      	cmp	r3, #4
 800386e:	bf18      	it	ne
 8003870:	2500      	movne	r5, #0
 8003872:	f8d9 2000 	ldr.w	r2, [r9]
 8003876:	f04f 0900 	mov.w	r9, #0
 800387a:	bf08      	it	eq
 800387c:	1aad      	subeq	r5, r5, r2
 800387e:	68a3      	ldr	r3, [r4, #8]
 8003880:	6922      	ldr	r2, [r4, #16]
 8003882:	bf08      	it	eq
 8003884:	ea25 75e5 	biceq.w	r5, r5, r5, asr #31
 8003888:	4293      	cmp	r3, r2
 800388a:	bfc4      	itt	gt
 800388c:	1a9b      	subgt	r3, r3, r2
 800388e:	18ed      	addgt	r5, r5, r3
 8003890:	341a      	adds	r4, #26
 8003892:	454d      	cmp	r5, r9
 8003894:	d11b      	bne.n	80038ce <_printf_common+0xda>
 8003896:	2000      	movs	r0, #0
 8003898:	e8bd 87f0 	ldmia.w	sp!, {r4, r5, r6, r7, r8, r9, sl, pc}
 800389c:	2301      	movs	r3, #1
 800389e:	4652      	mov	r2, sl
 80038a0:	4639      	mov	r1, r7
 80038a2:	4630      	mov	r0, r6
 80038a4:	47c0      	blx	r8
 80038a6:	3001      	adds	r0, #1
 80038a8:	d103      	bne.n	80038b2 <_printf_common+0xbe>
 80038aa:	f04f 30ff 	mov.w	r0, #4294967295
 80038ae:	e8bd 87f0 	ldmia.w	sp!, {r4, r5, r6, r7, r8, r9, sl, pc}
 80038b2:	3501      	adds	r5, #1
 80038b4:	e7c1      	b.n	800383a <_printf_common+0x46>
 80038b6:	2030      	movs	r0, #48	; 0x30
 80038b8:	18e1      	adds	r1, r4, r3
 80038ba:	f881 0043 	strb.w	r0, [r1, #67]	; 0x43
 80038be:	1c5a      	adds	r2, r3, #1
 80038c0:	f894 1045 	ldrb.w	r1, [r4, #69]	; 0x45
 80038c4:	4422      	add	r2, r4
 80038c6:	3302      	adds	r3, #2
 80038c8:	f882 1043 	strb.w	r1, [r2, #67]	; 0x43
 80038cc:	e7c3      	b.n	8003856 <_printf_common+0x62>
 80038ce:	2301      	movs	r3, #1
 80038d0:	4622      	mov	r2, r4
 80038d2:	4639      	mov	r1, r7
 80038d4:	4630      	mov	r0, r6
 80038d6:	47c0      	blx	r8
 80038d8:	3001      	adds	r0, #1
 80038da:	d0e6      	beq.n	80038aa <_printf_common+0xb6>
 80038dc:	f109 0901 	add.w	r9, r9, #1
 80038e0:	e7d7      	b.n	8003892 <_printf_common+0x9e>
	...

080038e4 <_printf_i>:
 80038e4:	e92d 43f0 	stmdb	sp!, {r4, r5, r6, r7, r8, r9, lr}
 80038e8:	4617      	mov	r7, r2
 80038ea:	7e0a      	ldrb	r2, [r1, #24]
 80038ec:	b085      	sub	sp, #20
 80038ee:	2a6e      	cmp	r2, #110	; 0x6e
 80038f0:	4698      	mov	r8, r3
 80038f2:	4606      	mov	r6, r0
 80038f4:	460c      	mov	r4, r1
 80038f6:	9b0c      	ldr	r3, [sp, #48]	; 0x30
 80038f8:	f101 0e43 	add.w	lr, r1, #67	; 0x43
 80038fc:	f000 80bc 	beq.w	8003a78 <_printf_i+0x194>
 8003900:	d81a      	bhi.n	8003938 <_printf_i+0x54>
 8003902:	2a63      	cmp	r2, #99	; 0x63
 8003904:	d02e      	beq.n	8003964 <_printf_i+0x80>
 8003906:	d80a      	bhi.n	800391e <_printf_i+0x3a>
 8003908:	2a00      	cmp	r2, #0
 800390a:	f000 80c8 	beq.w	8003a9e <_printf_i+0x1ba>
 800390e:	2a58      	cmp	r2, #88	; 0x58
 8003910:	f000 808a 	beq.w	8003a28 <_printf_i+0x144>
 8003914:	f104 0542 	add.w	r5, r4, #66	; 0x42
 8003918:	f884 2042 	strb.w	r2, [r4, #66]	; 0x42
 800391c:	e02a      	b.n	8003974 <_printf_i+0x90>
 800391e:	2a64      	cmp	r2, #100	; 0x64
 8003920:	d001      	beq.n	8003926 <_printf_i+0x42>
 8003922:	2a69      	cmp	r2, #105	; 0x69
 8003924:	d1f6      	bne.n	8003914 <_printf_i+0x30>
 8003926:	6821      	ldr	r1, [r4, #0]
 8003928:	681a      	ldr	r2, [r3, #0]
 800392a:	f011 0f80 	tst.w	r1, #128	; 0x80
 800392e:	d023      	beq.n	8003978 <_printf_i+0x94>
 8003930:	1d11      	adds	r1, r2, #4
 8003932:	6019      	str	r1, [r3, #0]
 8003934:	6813      	ldr	r3, [r2, #0]
 8003936:	e027      	b.n	8003988 <_printf_i+0xa4>
 8003938:	2a73      	cmp	r2, #115	; 0x73
 800393a:	f000 80b4 	beq.w	8003aa6 <_printf_i+0x1c2>
 800393e:	d808      	bhi.n	8003952 <_printf_i+0x6e>
 8003940:	2a6f      	cmp	r2, #111	; 0x6f
 8003942:	d02a      	beq.n	800399a <_printf_i+0xb6>
 8003944:	2a70      	cmp	r2, #112	; 0x70
 8003946:	d1e5      	bne.n	8003914 <_printf_i+0x30>
 8003948:	680a      	ldr	r2, [r1, #0]
 800394a:	f042 0220 	orr.w	r2, r2, #32
 800394e:	600a      	str	r2, [r1, #0]
 8003950:	e003      	b.n	800395a <_printf_i+0x76>
 8003952:	2a75      	cmp	r2, #117	; 0x75
 8003954:	d021      	beq.n	800399a <_printf_i+0xb6>
 8003956:	2a78      	cmp	r2, #120	; 0x78
 8003958:	d1dc      	bne.n	8003914 <_printf_i+0x30>
 800395a:	2278      	movs	r2, #120	; 0x78
 800395c:	496f      	ldr	r1, [pc, #444]	; (8003b1c <_printf_i+0x238>)
 800395e:	f884 2045 	strb.w	r2, [r4, #69]	; 0x45
 8003962:	e064      	b.n	8003a2e <_printf_i+0x14a>
 8003964:	681a      	ldr	r2, [r3, #0]
 8003966:	f101 0542 	add.w	r5, r1, #66	; 0x42
 800396a:	1d11      	adds	r1, r2, #4
 800396c:	6019      	str	r1, [r3, #0]
 800396e:	6813      	ldr	r3, [r2, #0]
 8003970:	f884 3042 	strb.w	r3, [r4, #66]	; 0x42
 8003974:	2301      	movs	r3, #1
 8003976:	e0a3      	b.n	8003ac0 <_printf_i+0x1dc>
 8003978:	f011 0f40 	tst.w	r1, #64	; 0x40
 800397c:	f102 0104 	add.w	r1, r2, #4
 8003980:	6019      	str	r1, [r3, #0]
 8003982:	d0d7      	beq.n	8003934 <_printf_i+0x50>
 8003984:	f9b2 3000 	ldrsh.w	r3, [r2]
 8003988:	2b00      	cmp	r3, #0
 800398a:	da03      	bge.n	8003994 <_printf_i+0xb0>
 800398c:	222d      	movs	r2, #45	; 0x2d
 800398e:	425b      	negs	r3, r3
 8003990:	f884 2043 	strb.w	r2, [r4, #67]	; 0x43
 8003994:	4962      	ldr	r1, [pc, #392]	; (8003b20 <_printf_i+0x23c>)
 8003996:	220a      	movs	r2, #10
 8003998:	e017      	b.n	80039ca <_printf_i+0xe6>
 800399a:	6820      	ldr	r0, [r4, #0]
 800399c:	6819      	ldr	r1, [r3, #0]
 800399e:	f010 0f80 	tst.w	r0, #128	; 0x80
 80039a2:	d003      	beq.n	80039ac <_printf_i+0xc8>
 80039a4:	1d08      	adds	r0, r1, #4
 80039a6:	6018      	str	r0, [r3, #0]
 80039a8:	680b      	ldr	r3, [r1, #0]
 80039aa:	e006      	b.n	80039ba <_printf_i+0xd6>
 80039ac:	f010 0f40 	tst.w	r0, #64	; 0x40
 80039b0:	f101 0004 	add.w	r0, r1, #4
 80039b4:	6018      	str	r0, [r3, #0]
 80039b6:	d0f7      	beq.n	80039a8 <_printf_i+0xc4>
 80039b8:	880b      	ldrh	r3, [r1, #0]
 80039ba:	2a6f      	cmp	r2, #111	; 0x6f
 80039bc:	bf14      	ite	ne
 80039be:	220a      	movne	r2, #10
 80039c0:	2208      	moveq	r2, #8
 80039c2:	4957      	ldr	r1, [pc, #348]	; (8003b20 <_printf_i+0x23c>)
 80039c4:	2000      	movs	r0, #0
 80039c6:	f884 0043 	strb.w	r0, [r4, #67]	; 0x43
 80039ca:	6865      	ldr	r5, [r4, #4]
 80039cc:	2d00      	cmp	r5, #0
 80039ce:	60a5      	str	r5, [r4, #8]
 80039d0:	f2c0 809c 	blt.w	8003b0c <_printf_i+0x228>
 80039d4:	6820      	ldr	r0, [r4, #0]
 80039d6:	f020 0004 	bic.w	r0, r0, #4
 80039da:	6020      	str	r0, [r4, #0]
 80039dc:	2b00      	cmp	r3, #0
 80039de:	d13f      	bne.n	8003a60 <_printf_i+0x17c>
 80039e0:	2d00      	cmp	r5, #0
 80039e2:	f040 8095 	bne.w	8003b10 <_printf_i+0x22c>
 80039e6:	4675      	mov	r5, lr
 80039e8:	2a08      	cmp	r2, #8
 80039ea:	d10b      	bne.n	8003a04 <_printf_i+0x120>
 80039ec:	6823      	ldr	r3, [r4, #0]
 80039ee:	07da      	lsls	r2, r3, #31
 80039f0:	d508      	bpl.n	8003a04 <_printf_i+0x120>
 80039f2:	6923      	ldr	r3, [r4, #16]
 80039f4:	6862      	ldr	r2, [r4, #4]
 80039f6:	429a      	cmp	r2, r3
 80039f8:	bfde      	ittt	le
 80039fa:	2330      	movle	r3, #48	; 0x30
 80039fc:	f805 3c01 	strble.w	r3, [r5, #-1]
 8003a00:	f105 35ff 	addle.w	r5, r5, #4294967295
 8003a04:	ebae 0305 	sub.w	r3, lr, r5
 8003a08:	6123      	str	r3, [r4, #16]
 8003a0a:	f8cd 8000 	str.w	r8, [sp]
 8003a0e:	463b      	mov	r3, r7
 8003a10:	aa03      	add	r2, sp, #12
 8003a12:	4621      	mov	r1, r4
 8003a14:	4630      	mov	r0, r6
 8003a16:	f7ff feed 	bl	80037f4 <_printf_common>
 8003a1a:	3001      	adds	r0, #1
 8003a1c:	d155      	bne.n	8003aca <_printf_i+0x1e6>
 8003a1e:	f04f 30ff 	mov.w	r0, #4294967295
 8003a22:	b005      	add	sp, #20
 8003a24:	e8bd 83f0 	ldmia.w	sp!, {r4, r5, r6, r7, r8, r9, pc}
 8003a28:	f881 2045 	strb.w	r2, [r1, #69]	; 0x45
 8003a2c:	493c      	ldr	r1, [pc, #240]	; (8003b20 <_printf_i+0x23c>)
 8003a2e:	6822      	ldr	r2, [r4, #0]
 8003a30:	6818      	ldr	r0, [r3, #0]
 8003a32:	f012 0f80 	tst.w	r2, #128	; 0x80
 8003a36:	f100 0504 	add.w	r5, r0, #4
 8003a3a:	601d      	str	r5, [r3, #0]
 8003a3c:	d001      	beq.n	8003a42 <_printf_i+0x15e>
 8003a3e:	6803      	ldr	r3, [r0, #0]
 8003a40:	e002      	b.n	8003a48 <_printf_i+0x164>
 8003a42:	0655      	lsls	r5, r2, #25
 8003a44:	d5fb      	bpl.n	8003a3e <_printf_i+0x15a>
 8003a46:	8803      	ldrh	r3, [r0, #0]
 8003a48:	07d0      	lsls	r0, r2, #31
 8003a4a:	bf44      	itt	mi
 8003a4c:	f042 0220 	orrmi.w	r2, r2, #32
 8003a50:	6022      	strmi	r2, [r4, #0]
 8003a52:	b91b      	cbnz	r3, 8003a5c <_printf_i+0x178>
 8003a54:	6822      	ldr	r2, [r4, #0]
 8003a56:	f022 0220 	bic.w	r2, r2, #32
 8003a5a:	6022      	str	r2, [r4, #0]
 8003a5c:	2210      	movs	r2, #16
 8003a5e:	e7b1      	b.n	80039c4 <_printf_i+0xe0>
 8003a60:	4675      	mov	r5, lr
 8003a62:	fbb3 f0f2 	udiv	r0, r3, r2
 8003a66:	fb02 3310 	mls	r3, r2, r0, r3
 8003a6a:	5ccb      	ldrb	r3, [r1, r3]
 8003a6c:	f805 3d01 	strb.w	r3, [r5, #-1]!
 8003a70:	4603      	mov	r3, r0
 8003a72:	2800      	cmp	r0, #0
 8003a74:	d1f5      	bne.n	8003a62 <_printf_i+0x17e>
 8003a76:	e7b7      	b.n	80039e8 <_printf_i+0x104>
 8003a78:	6808      	ldr	r0, [r1, #0]
 8003a7a:	681a      	ldr	r2, [r3, #0]
 8003a7c:	f010 0f80 	tst.w	r0, #128	; 0x80
 8003a80:	6949      	ldr	r1, [r1, #20]
 8003a82:	d004      	beq.n	8003a8e <_printf_i+0x1aa>
 8003a84:	1d10      	adds	r0, r2, #4
 8003a86:	6018      	str	r0, [r3, #0]
 8003a88:	6813      	ldr	r3, [r2, #0]
 8003a8a:	6019      	str	r1, [r3, #0]
 8003a8c:	e007      	b.n	8003a9e <_printf_i+0x1ba>
 8003a8e:	f010 0f40 	tst.w	r0, #64	; 0x40
 8003a92:	f102 0004 	add.w	r0, r2, #4
 8003a96:	6018      	str	r0, [r3, #0]
 8003a98:	6813      	ldr	r3, [r2, #0]
 8003a9a:	d0f6      	beq.n	8003a8a <_printf_i+0x1a6>
 8003a9c:	8019      	strh	r1, [r3, #0]
 8003a9e:	2300      	movs	r3, #0
 8003aa0:	4675      	mov	r5, lr
 8003aa2:	6123      	str	r3, [r4, #16]
 8003aa4:	e7b1      	b.n	8003a0a <_printf_i+0x126>
 8003aa6:	681a      	ldr	r2, [r3, #0]
 8003aa8:	1d11      	adds	r1, r2, #4
 8003aaa:	6019      	str	r1, [r3, #0]
 8003aac:	6815      	ldr	r5, [r2, #0]
 8003aae:	2100      	movs	r1, #0
 8003ab0:	6862      	ldr	r2, [r4, #4]
 8003ab2:	4628      	mov	r0, r5
 8003ab4:	f000 f843 	bl	8003b3e <memchr>
 8003ab8:	b108      	cbz	r0, 8003abe <_printf_i+0x1da>
 8003aba:	1b40      	subs	r0, r0, r5
 8003abc:	6060      	str	r0, [r4, #4]
 8003abe:	6863      	ldr	r3, [r4, #4]
 8003ac0:	6123      	str	r3, [r4, #16]
 8003ac2:	2300      	movs	r3, #0
 8003ac4:	f884 3043 	strb.w	r3, [r4, #67]	; 0x43
 8003ac8:	e79f      	b.n	8003a0a <_printf_i+0x126>
 8003aca:	6923      	ldr	r3, [r4, #16]
 8003acc:	462a      	mov	r2, r5
 8003ace:	4639      	mov	r1, r7
 8003ad0:	4630      	mov	r0, r6
 8003ad2:	47c0      	blx	r8
 8003ad4:	3001      	adds	r0, #1
 8003ad6:	d0a2      	beq.n	8003a1e <_printf_i+0x13a>
 8003ad8:	6823      	ldr	r3, [r4, #0]
 8003ada:	079b      	lsls	r3, r3, #30
 8003adc:	d507      	bpl.n	8003aee <_printf_i+0x20a>
 8003ade:	2500      	movs	r5, #0
 8003ae0:	f104 0919 	add.w	r9, r4, #25
 8003ae4:	68e3      	ldr	r3, [r4, #12]
 8003ae6:	9a03      	ldr	r2, [sp, #12]
 8003ae8:	1a9b      	subs	r3, r3, r2
 8003aea:	429d      	cmp	r5, r3
 8003aec:	db05      	blt.n	8003afa <_printf_i+0x216>
 8003aee:	68e0      	ldr	r0, [r4, #12]
 8003af0:	9b03      	ldr	r3, [sp, #12]
 8003af2:	4298      	cmp	r0, r3
 8003af4:	bfb8      	it	lt
 8003af6:	4618      	movlt	r0, r3
 8003af8:	e793      	b.n	8003a22 <_printf_i+0x13e>
 8003afa:	2301      	movs	r3, #1
 8003afc:	464a      	mov	r2, r9
 8003afe:	4639      	mov	r1, r7
 8003b00:	4630      	mov	r0, r6
 8003b02:	47c0      	blx	r8
 8003b04:	3001      	adds	r0, #1
 8003b06:	d08a      	beq.n	8003a1e <_printf_i+0x13a>
 8003b08:	3501      	adds	r5, #1
 8003b0a:	e7eb      	b.n	8003ae4 <_printf_i+0x200>
 8003b0c:	2b00      	cmp	r3, #0
 8003b0e:	d1a7      	bne.n	8003a60 <_printf_i+0x17c>
 8003b10:	780b      	ldrb	r3, [r1, #0]
 8003b12:	f104 0542 	add.w	r5, r4, #66	; 0x42
 8003b16:	f884 3042 	strb.w	r3, [r4, #66]	; 0x42
 8003b1a:	e765      	b.n	80039e8 <_printf_i+0x104>
 8003b1c:	080040ca 	.word	0x080040ca
 8003b20:	080040b9 	.word	0x080040b9

08003b24 <__ascii_wctomb>:
 8003b24:	b149      	cbz	r1, 8003b3a <__ascii_wctomb+0x16>
 8003b26:	2aff      	cmp	r2, #255	; 0xff
 8003b28:	bf8b      	itete	hi
 8003b2a:	238a      	movhi	r3, #138	; 0x8a
 8003b2c:	700a      	strbls	r2, [r1, #0]
 8003b2e:	6003      	strhi	r3, [r0, #0]
 8003b30:	2001      	movls	r0, #1
 8003b32:	bf88      	it	hi
 8003b34:	f04f 30ff 	movhi.w	r0, #4294967295
 8003b38:	4770      	bx	lr
 8003b3a:	4608      	mov	r0, r1
 8003b3c:	4770      	bx	lr

08003b3e <memchr>:
 8003b3e:	b510      	push	{r4, lr}
 8003b40:	b2c9      	uxtb	r1, r1
 8003b42:	4402      	add	r2, r0
 8003b44:	4290      	cmp	r0, r2
 8003b46:	4603      	mov	r3, r0
 8003b48:	d101      	bne.n	8003b4e <memchr+0x10>
 8003b4a:	2000      	movs	r0, #0
 8003b4c:	bd10      	pop	{r4, pc}
 8003b4e:	781c      	ldrb	r4, [r3, #0]
 8003b50:	3001      	adds	r0, #1
 8003b52:	428c      	cmp	r4, r1
 8003b54:	d1f6      	bne.n	8003b44 <memchr+0x6>
 8003b56:	4618      	mov	r0, r3
 8003b58:	bd10      	pop	{r4, pc}

08003b5a <memmove>:
 8003b5a:	4288      	cmp	r0, r1
 8003b5c:	b510      	push	{r4, lr}
 8003b5e:	eb01 0302 	add.w	r3, r1, r2
 8003b62:	d803      	bhi.n	8003b6c <memmove+0x12>
 8003b64:	1e42      	subs	r2, r0, #1
 8003b66:	4299      	cmp	r1, r3
 8003b68:	d10c      	bne.n	8003b84 <memmove+0x2a>
 8003b6a:	bd10      	pop	{r4, pc}
 8003b6c:	4298      	cmp	r0, r3
 8003b6e:	d2f9      	bcs.n	8003b64 <memmove+0xa>
 8003b70:	1881      	adds	r1, r0, r2
 8003b72:	1ad2      	subs	r2, r2, r3
 8003b74:	42d3      	cmn	r3, r2
 8003b76:	d100      	bne.n	8003b7a <memmove+0x20>
 8003b78:	bd10      	pop	{r4, pc}
 8003b7a:	f813 4d01 	ldrb.w	r4, [r3, #-1]!
 8003b7e:	f801 4d01 	strb.w	r4, [r1, #-1]!
 8003b82:	e7f7      	b.n	8003b74 <memmove+0x1a>
 8003b84:	f811 4b01 	ldrb.w	r4, [r1], #1
 8003b88:	f802 4f01 	strb.w	r4, [r2, #1]!
 8003b8c:	e7eb      	b.n	8003b66 <memmove+0xc>
	...

08003b90 <_free_r>:
 8003b90:	b538      	push	{r3, r4, r5, lr}
 8003b92:	4605      	mov	r5, r0
 8003b94:	2900      	cmp	r1, #0
 8003b96:	d043      	beq.n	8003c20 <_free_r+0x90>
 8003b98:	f851 3c04 	ldr.w	r3, [r1, #-4]
 8003b9c:	1f0c      	subs	r4, r1, #4
 8003b9e:	2b00      	cmp	r3, #0
 8003ba0:	bfb8      	it	lt
 8003ba2:	18e4      	addlt	r4, r4, r3
 8003ba4:	f000 f8d4 	bl	8003d50 <__malloc_lock>
 8003ba8:	4a1e      	ldr	r2, [pc, #120]	; (8003c24 <_free_r+0x94>)
 8003baa:	6813      	ldr	r3, [r2, #0]
 8003bac:	4610      	mov	r0, r2
 8003bae:	b933      	cbnz	r3, 8003bbe <_free_r+0x2e>
 8003bb0:	6063      	str	r3, [r4, #4]
 8003bb2:	6014      	str	r4, [r2, #0]
 8003bb4:	4628      	mov	r0, r5
 8003bb6:	e8bd 4038 	ldmia.w	sp!, {r3, r4, r5, lr}
 8003bba:	f000 b8ca 	b.w	8003d52 <__malloc_unlock>
 8003bbe:	42a3      	cmp	r3, r4
 8003bc0:	d90b      	bls.n	8003bda <_free_r+0x4a>
 8003bc2:	6821      	ldr	r1, [r4, #0]
 8003bc4:	1862      	adds	r2, r4, r1
 8003bc6:	4293      	cmp	r3, r2
 8003bc8:	bf01      	itttt	eq
 8003bca:	681a      	ldreq	r2, [r3, #0]
 8003bcc:	685b      	ldreq	r3, [r3, #4]
 8003bce:	1852      	addeq	r2, r2, r1
 8003bd0:	6022      	streq	r2, [r4, #0]
 8003bd2:	6063      	str	r3, [r4, #4]
 8003bd4:	6004      	str	r4, [r0, #0]
 8003bd6:	e7ed      	b.n	8003bb4 <_free_r+0x24>
 8003bd8:	4613      	mov	r3, r2
 8003bda:	685a      	ldr	r2, [r3, #4]
 8003bdc:	b10a      	cbz	r2, 8003be2 <_free_r+0x52>
 8003bde:	42a2      	cmp	r2, r4
 8003be0:	d9fa      	bls.n	8003bd8 <_free_r+0x48>
 8003be2:	6819      	ldr	r1, [r3, #0]
 8003be4:	1858      	adds	r0, r3, r1
 8003be6:	42a0      	cmp	r0, r4
 8003be8:	d10b      	bne.n	8003c02 <_free_r+0x72>
 8003bea:	6820      	ldr	r0, [r4, #0]
 8003bec:	4401      	add	r1, r0
 8003bee:	1858      	adds	r0, r3, r1
 8003bf0:	4282      	cmp	r2, r0
 8003bf2:	6019      	str	r1, [r3, #0]
 8003bf4:	d1de      	bne.n	8003bb4 <_free_r+0x24>
 8003bf6:	6810      	ldr	r0, [r2, #0]
 8003bf8:	6852      	ldr	r2, [r2, #4]
 8003bfa:	4401      	add	r1, r0
 8003bfc:	6019      	str	r1, [r3, #0]
 8003bfe:	605a      	str	r2, [r3, #4]
 8003c00:	e7d8      	b.n	8003bb4 <_free_r+0x24>
 8003c02:	d902      	bls.n	8003c0a <_free_r+0x7a>
 8003c04:	230c      	movs	r3, #12
 8003c06:	602b      	str	r3, [r5, #0]
 8003c08:	e7d4      	b.n	8003bb4 <_free_r+0x24>
 8003c0a:	6820      	ldr	r0, [r4, #0]
 8003c0c:	1821      	adds	r1, r4, r0
 8003c0e:	428a      	cmp	r2, r1
 8003c10:	bf01      	itttt	eq
 8003c12:	6811      	ldreq	r1, [r2, #0]
 8003c14:	6852      	ldreq	r2, [r2, #4]
 8003c16:	1809      	addeq	r1, r1, r0
 8003c18:	6021      	streq	r1, [r4, #0]
 8003c1a:	6062      	str	r2, [r4, #4]
 8003c1c:	605c      	str	r4, [r3, #4]
 8003c1e:	e7c9      	b.n	8003bb4 <_free_r+0x24>
 8003c20:	bd38      	pop	{r3, r4, r5, pc}
 8003c22:	bf00      	nop
 8003c24:	20001360 	.word	0x20001360

08003c28 <_malloc_r>:
 8003c28:	b570      	push	{r4, r5, r6, lr}
 8003c2a:	1ccd      	adds	r5, r1, #3
 8003c2c:	f025 0503 	bic.w	r5, r5, #3
 8003c30:	3508      	adds	r5, #8
 8003c32:	2d0c      	cmp	r5, #12
 8003c34:	bf38      	it	cc
 8003c36:	250c      	movcc	r5, #12
 8003c38:	2d00      	cmp	r5, #0
 8003c3a:	4606      	mov	r6, r0
 8003c3c:	db01      	blt.n	8003c42 <_malloc_r+0x1a>
 8003c3e:	42a9      	cmp	r1, r5
 8003c40:	d903      	bls.n	8003c4a <_malloc_r+0x22>
 8003c42:	230c      	movs	r3, #12
 8003c44:	6033      	str	r3, [r6, #0]
 8003c46:	2000      	movs	r0, #0
 8003c48:	bd70      	pop	{r4, r5, r6, pc}
 8003c4a:	f000 f881 	bl	8003d50 <__malloc_lock>
 8003c4e:	4a23      	ldr	r2, [pc, #140]	; (8003cdc <_malloc_r+0xb4>)
 8003c50:	6814      	ldr	r4, [r2, #0]
 8003c52:	4621      	mov	r1, r4
 8003c54:	b991      	cbnz	r1, 8003c7c <_malloc_r+0x54>
 8003c56:	4c22      	ldr	r4, [pc, #136]	; (8003ce0 <_malloc_r+0xb8>)
 8003c58:	6823      	ldr	r3, [r4, #0]
 8003c5a:	b91b      	cbnz	r3, 8003c64 <_malloc_r+0x3c>
 8003c5c:	4630      	mov	r0, r6
 8003c5e:	f000 f867 	bl	8003d30 <_sbrk_r>
 8003c62:	6020      	str	r0, [r4, #0]
 8003c64:	4629      	mov	r1, r5
 8003c66:	4630      	mov	r0, r6
 8003c68:	f000 f862 	bl	8003d30 <_sbrk_r>
 8003c6c:	1c43      	adds	r3, r0, #1
 8003c6e:	d126      	bne.n	8003cbe <_malloc_r+0x96>
 8003c70:	230c      	movs	r3, #12
 8003c72:	4630      	mov	r0, r6
 8003c74:	6033      	str	r3, [r6, #0]
 8003c76:	f000 f86c 	bl	8003d52 <__malloc_unlock>
 8003c7a:	e7e4      	b.n	8003c46 <_malloc_r+0x1e>
 8003c7c:	680b      	ldr	r3, [r1, #0]
 8003c7e:	1b5b      	subs	r3, r3, r5
 8003c80:	d41a      	bmi.n	8003cb8 <_malloc_r+0x90>
 8003c82:	2b0b      	cmp	r3, #11
 8003c84:	d90f      	bls.n	8003ca6 <_malloc_r+0x7e>
 8003c86:	600b      	str	r3, [r1, #0]
 8003c88:	18cc      	adds	r4, r1, r3
 8003c8a:	50cd      	str	r5, [r1, r3]
 8003c8c:	4630      	mov	r0, r6
 8003c8e:	f000 f860 	bl	8003d52 <__malloc_unlock>
 8003c92:	f104 000b 	add.w	r0, r4, #11
 8003c96:	1d23      	adds	r3, r4, #4
 8003c98:	f020 0007 	bic.w	r0, r0, #7
 8003c9c:	1ac3      	subs	r3, r0, r3
 8003c9e:	d01b      	beq.n	8003cd8 <_malloc_r+0xb0>
 8003ca0:	425a      	negs	r2, r3
 8003ca2:	50e2      	str	r2, [r4, r3]
 8003ca4:	bd70      	pop	{r4, r5, r6, pc}
 8003ca6:	428c      	cmp	r4, r1
 8003ca8:	bf0b      	itete	eq
 8003caa:	6863      	ldreq	r3, [r4, #4]
 8003cac:	684b      	ldrne	r3, [r1, #4]
 8003cae:	6013      	streq	r3, [r2, #0]
 8003cb0:	6063      	strne	r3, [r4, #4]
 8003cb2:	bf18      	it	ne
 8003cb4:	460c      	movne	r4, r1
 8003cb6:	e7e9      	b.n	8003c8c <_malloc_r+0x64>
 8003cb8:	460c      	mov	r4, r1
 8003cba:	6849      	ldr	r1, [r1, #4]
 8003cbc:	e7ca      	b.n	8003c54 <_malloc_r+0x2c>
 8003cbe:	1cc4      	adds	r4, r0, #3
 8003cc0:	f024 0403 	bic.w	r4, r4, #3
 8003cc4:	42a0      	cmp	r0, r4
 8003cc6:	d005      	beq.n	8003cd4 <_malloc_r+0xac>
 8003cc8:	1a21      	subs	r1, r4, r0
 8003cca:	4630      	mov	r0, r6
 8003ccc:	f000 f830 	bl	8003d30 <_sbrk_r>
 8003cd0:	3001      	adds	r0, #1
 8003cd2:	d0cd      	beq.n	8003c70 <_malloc_r+0x48>
 8003cd4:	6025      	str	r5, [r4, #0]
 8003cd6:	e7d9      	b.n	8003c8c <_malloc_r+0x64>
 8003cd8:	bd70      	pop	{r4, r5, r6, pc}
 8003cda:	bf00      	nop
 8003cdc:	20001360 	.word	0x20001360
 8003ce0:	20001364 	.word	0x20001364

08003ce4 <_realloc_r>:
 8003ce4:	b5f8      	push	{r3, r4, r5, r6, r7, lr}
 8003ce6:	4607      	mov	r7, r0
 8003ce8:	4614      	mov	r4, r2
 8003cea:	460e      	mov	r6, r1
 8003cec:	b921      	cbnz	r1, 8003cf8 <_realloc_r+0x14>
 8003cee:	4611      	mov	r1, r2
 8003cf0:	e8bd 40f8 	ldmia.w	sp!, {r3, r4, r5, r6, r7, lr}
 8003cf4:	f7ff bf98 	b.w	8003c28 <_malloc_r>
 8003cf8:	b922      	cbnz	r2, 8003d04 <_realloc_r+0x20>
 8003cfa:	f7ff ff49 	bl	8003b90 <_free_r>
 8003cfe:	4625      	mov	r5, r4
 8003d00:	4628      	mov	r0, r5
 8003d02:	bdf8      	pop	{r3, r4, r5, r6, r7, pc}
 8003d04:	f000 f826 	bl	8003d54 <_malloc_usable_size_r>
 8003d08:	4284      	cmp	r4, r0
 8003d0a:	d90f      	bls.n	8003d2c <_realloc_r+0x48>
 8003d0c:	4621      	mov	r1, r4
 8003d0e:	4638      	mov	r0, r7
 8003d10:	f7ff ff8a 	bl	8003c28 <_malloc_r>
 8003d14:	4605      	mov	r5, r0
 8003d16:	2800      	cmp	r0, #0
 8003d18:	d0f2      	beq.n	8003d00 <_realloc_r+0x1c>
 8003d1a:	4631      	mov	r1, r6
 8003d1c:	4622      	mov	r2, r4
 8003d1e:	f7ff fb1b 	bl	8003358 <memcpy>
 8003d22:	4631      	mov	r1, r6
 8003d24:	4638      	mov	r0, r7
 8003d26:	f7ff ff33 	bl	8003b90 <_free_r>
 8003d2a:	e7e9      	b.n	8003d00 <_realloc_r+0x1c>
 8003d2c:	4635      	mov	r5, r6
 8003d2e:	e7e7      	b.n	8003d00 <_realloc_r+0x1c>

08003d30 <_sbrk_r>:
 8003d30:	b538      	push	{r3, r4, r5, lr}
 8003d32:	2300      	movs	r3, #0
 8003d34:	4c05      	ldr	r4, [pc, #20]	; (8003d4c <_sbrk_r+0x1c>)
 8003d36:	4605      	mov	r5, r0
 8003d38:	4608      	mov	r0, r1
 8003d3a:	6023      	str	r3, [r4, #0]
 8003d3c:	f7ff fa7c 	bl	8003238 <_sbrk>
 8003d40:	1c43      	adds	r3, r0, #1
 8003d42:	d102      	bne.n	8003d4a <_sbrk_r+0x1a>
 8003d44:	6823      	ldr	r3, [r4, #0]
 8003d46:	b103      	cbz	r3, 8003d4a <_sbrk_r+0x1a>
 8003d48:	602b      	str	r3, [r5, #0]
 8003d4a:	bd38      	pop	{r3, r4, r5, pc}
 8003d4c:	200019c4 	.word	0x200019c4

08003d50 <__malloc_lock>:
 8003d50:	4770      	bx	lr

08003d52 <__malloc_unlock>:
 8003d52:	4770      	bx	lr

08003d54 <_malloc_usable_size_r>:
 8003d54:	f851 0c04 	ldr.w	r0, [r1, #-4]
 8003d58:	2800      	cmp	r0, #0
 8003d5a:	f1a0 0004 	sub.w	r0, r0, #4
 8003d5e:	bfbc      	itt	lt
 8003d60:	580b      	ldrlt	r3, [r1, r0]
 8003d62:	18c0      	addlt	r0, r0, r3
 8003d64:	4770      	bx	lr
	...

08003d68 <_init>:
 8003d68:	b5f8      	push	{r3, r4, r5, r6, r7, lr}
 8003d6a:	bf00      	nop
 8003d6c:	bcf8      	pop	{r3, r4, r5, r6, r7}
 8003d6e:	bc08      	pop	{r3}
 8003d70:	469e      	mov	lr, r3
 8003d72:	4770      	bx	lr

08003d74 <_fini>:
 8003d74:	b5f8      	push	{r3, r4, r5, r6, r7, lr}
 8003d76:	bf00      	nop
 8003d78:	bcf8      	pop	{r3, r4, r5, r6, r7}
 8003d7a:	bc08      	pop	{r3}
 8003d7c:	469e      	mov	lr, r3
 8003d7e:	4770      	bx	lr
